
rv32uf-p-move:     file format elf32-littleriscv


Disassembly of section .text.init:

80000000 <_start>:
80000000:	04c0006f          	j	8000004c <reset_vector>

80000004 <trap_vector>:
80000004:	34202f73          	csrr	t5,mcause
80000008:	00800f93          	li	t6,8
8000000c:	03ff0a63          	beq	t5,t6,80000040 <write_tohost>
80000010:	00900f93          	li	t6,9
80000014:	03ff0663          	beq	t5,t6,80000040 <write_tohost>
80000018:	00b00f93          	li	t6,11
8000001c:	03ff0263          	beq	t5,t6,80000040 <write_tohost>
80000020:	80000f17          	auipc	t5,0x80000
80000024:	fe0f0f13          	addi	t5,t5,-32 # 0 <_start-0x80000000>
80000028:	000f0463          	beqz	t5,80000030 <trap_vector+0x2c>
8000002c:	000f0067          	jr	t5
80000030:	34202f73          	csrr	t5,mcause
80000034:	000f5463          	bgez	t5,8000003c <handle_exception>
80000038:	0040006f          	j	8000003c <handle_exception>

8000003c <handle_exception>:
8000003c:	5391e193          	ori	gp,gp,1337

80000040 <write_tohost>:
80000040:	00001f17          	auipc	t5,0x1
80000044:	fc3f2023          	sw	gp,-64(t5) # 80001000 <tohost>
80000048:	ff9ff06f          	j	80000040 <write_tohost>

8000004c <reset_vector>:
8000004c:	f1402573          	csrr	a0,mhartid
80000050:	00051063          	bnez	a0,80000050 <reset_vector+0x4>
80000054:	00000297          	auipc	t0,0x0
80000058:	01028293          	addi	t0,t0,16 # 80000064 <reset_vector+0x18>
8000005c:	30529073          	csrw	mtvec,t0
80000060:	18005073          	csrwi	satp,0
80000064:	00000297          	auipc	t0,0x0
80000068:	01c28293          	addi	t0,t0,28 # 80000080 <reset_vector+0x34>
8000006c:	30529073          	csrw	mtvec,t0
80000070:	fff00293          	li	t0,-1
80000074:	3b029073          	csrw	pmpaddr0,t0
80000078:	01f00293          	li	t0,31
8000007c:	3a029073          	csrw	pmpcfg0,t0
80000080:	00000297          	auipc	t0,0x0
80000084:	01828293          	addi	t0,t0,24 # 80000098 <reset_vector+0x4c>
80000088:	30529073          	csrw	mtvec,t0
8000008c:	30205073          	csrwi	medeleg,0
80000090:	30305073          	csrwi	mideleg,0
80000094:	30405073          	csrwi	mie,0
80000098:	00000193          	li	gp,0
8000009c:	00000297          	auipc	t0,0x0
800000a0:	f6828293          	addi	t0,t0,-152 # 80000004 <trap_vector>
800000a4:	30529073          	csrw	mtvec,t0
800000a8:	00100513          	li	a0,1
800000ac:	01f51513          	slli	a0,a0,0x1f
800000b0:	00054863          	bltz	a0,800000c0 <reset_vector+0x74>
800000b4:	0ff0000f          	fence
800000b8:	00100193          	li	gp,1
800000bc:	00000073          	ecall
800000c0:	80000297          	auipc	t0,0x80000
800000c4:	f4028293          	addi	t0,t0,-192 # 0 <_start-0x80000000>
800000c8:	00028e63          	beqz	t0,800000e4 <reset_vector+0x98>
800000cc:	10529073          	csrw	stvec,t0
800000d0:	0000b2b7          	lui	t0,0xb
800000d4:	10928293          	addi	t0,t0,265 # b109 <_start-0x7fff4ef7>
800000d8:	30229073          	csrw	medeleg,t0
800000dc:	30202373          	csrr	t1,medeleg
800000e0:	f4629ee3          	bne	t0,t1,8000003c <handle_exception>
800000e4:	30005073          	csrwi	mstatus,0
800000e8:	00002537          	lui	a0,0x2
800000ec:	30052073          	csrs	mstatus,a0
800000f0:	00305073          	csrwi	fcsr,0
800000f4:	00000297          	auipc	t0,0x0
800000f8:	01428293          	addi	t0,t0,20 # 80000108 <test_2>
800000fc:	34129073          	csrw	mepc,t0
80000100:	f1402573          	csrr	a0,mhartid
80000104:	30200073          	mret

80000108 <test_2>:
80000108:	0030d073          	csrwi	fcsr,1
8000010c:	00001537          	lui	a0,0x1
80000110:	23450513          	addi	a0,a0,564 # 1234 <_start-0x7fffedcc>
80000114:	003515f3          	fssr	a1,a0
80000118:	00100e93          	li	t4,1
8000011c:	00200193          	li	gp,2
80000120:	27d59c63          	bne	a1,t4,80000398 <fail>

80000124 <test_3>:
80000124:	00302573          	frsr	a0
80000128:	03400e93          	li	t4,52
8000012c:	00300193          	li	gp,3
80000130:	27d51463          	bne	a0,t4,80000398 <fail>

80000134 <test_4>:
80000134:	00102573          	frflags	a0
80000138:	01400e93          	li	t4,20
8000013c:	00400193          	li	gp,4
80000140:	25d51c63          	bne	a0,t4,80000398 <fail>

80000144 <test_5>:
80000144:	00215573          	fsrmi	a0,2
80000148:	00100e93          	li	t4,1
8000014c:	00500193          	li	gp,5
80000150:	25d51463          	bne	a0,t4,80000398 <fail>

80000154 <test_6>:
80000154:	00302573          	frsr	a0
80000158:	05400e93          	li	t4,84
8000015c:	00600193          	li	gp,6
80000160:	23d51c63          	bne	a0,t4,80000398 <fail>

80000164 <test_7>:
80000164:	00127573          	csrrci	a0,fflags,4
80000168:	01400e93          	li	t4,20
8000016c:	00700193          	li	gp,7
80000170:	23d51463          	bne	a0,t4,80000398 <fail>

80000174 <test_8>:
80000174:	00302573          	frsr	a0
80000178:	05000e93          	li	t4,80
8000017c:	00800193          	li	gp,8
80000180:	21d51c63          	bne	a0,t4,80000398 <fail>

80000184 <test_10>:
80000184:	123455b7          	lui	a1,0x12345
80000188:	67858593          	addi	a1,a1,1656 # 12345678 <_start-0x6dcba988>
8000018c:	00000613          	li	a2,0
80000190:	f00580d3          	fmv.w.x	ft1,a1
80000194:	f0060153          	fmv.w.x	ft2,a2
80000198:	20208053          	fsgnj.s	ft0,ft1,ft2
8000019c:	e0000553          	fmv.x.w	a0,ft0
800001a0:	12345eb7          	lui	t4,0x12345
800001a4:	678e8e93          	addi	t4,t4,1656 # 12345678 <_start-0x6dcba988>
800001a8:	00a00193          	li	gp,10
800001ac:	1fd51663          	bne	a0,t4,80000398 <fail>

800001b0 <test_11>:
800001b0:	123455b7          	lui	a1,0x12345
800001b4:	67858593          	addi	a1,a1,1656 # 12345678 <_start-0x6dcba988>
800001b8:	fff00613          	li	a2,-1
800001bc:	f00580d3          	fmv.w.x	ft1,a1
800001c0:	f0060153          	fmv.w.x	ft2,a2
800001c4:	20208053          	fsgnj.s	ft0,ft1,ft2
800001c8:	e0000553          	fmv.x.w	a0,ft0
800001cc:	92345eb7          	lui	t4,0x92345
800001d0:	678e8e93          	addi	t4,t4,1656 # 92345678 <_end+0x12343678>
800001d4:	00b00193          	li	gp,11
800001d8:	1dd51063          	bne	a0,t4,80000398 <fail>

800001dc <test_12>:
800001dc:	923455b7          	lui	a1,0x92345
800001e0:	67858593          	addi	a1,a1,1656 # 92345678 <_end+0x12343678>
800001e4:	00000613          	li	a2,0
800001e8:	f00580d3          	fmv.w.x	ft1,a1
800001ec:	f0060153          	fmv.w.x	ft2,a2
800001f0:	20208053          	fsgnj.s	ft0,ft1,ft2
800001f4:	e0000553          	fmv.x.w	a0,ft0
800001f8:	12345eb7          	lui	t4,0x12345
800001fc:	678e8e93          	addi	t4,t4,1656 # 12345678 <_start-0x6dcba988>
80000200:	00c00193          	li	gp,12
80000204:	19d51a63          	bne	a0,t4,80000398 <fail>

80000208 <test_13>:
80000208:	923455b7          	lui	a1,0x92345
8000020c:	67858593          	addi	a1,a1,1656 # 92345678 <_end+0x12343678>
80000210:	fff00613          	li	a2,-1
80000214:	f00580d3          	fmv.w.x	ft1,a1
80000218:	f0060153          	fmv.w.x	ft2,a2
8000021c:	20208053          	fsgnj.s	ft0,ft1,ft2
80000220:	e0000553          	fmv.x.w	a0,ft0
80000224:	92345eb7          	lui	t4,0x92345
80000228:	678e8e93          	addi	t4,t4,1656 # 92345678 <_end+0x12343678>
8000022c:	00d00193          	li	gp,13
80000230:	17d51463          	bne	a0,t4,80000398 <fail>

80000234 <test_20>:
80000234:	123455b7          	lui	a1,0x12345
80000238:	67858593          	addi	a1,a1,1656 # 12345678 <_start-0x6dcba988>
8000023c:	00000613          	li	a2,0
80000240:	f00580d3          	fmv.w.x	ft1,a1
80000244:	f0060153          	fmv.w.x	ft2,a2
80000248:	20209053          	fsgnjn.s	ft0,ft1,ft2
8000024c:	e0000553          	fmv.x.w	a0,ft0
80000250:	92345eb7          	lui	t4,0x92345
80000254:	678e8e93          	addi	t4,t4,1656 # 92345678 <_end+0x12343678>
80000258:	01400193          	li	gp,20
8000025c:	13d51e63          	bne	a0,t4,80000398 <fail>

80000260 <test_21>:
80000260:	123455b7          	lui	a1,0x12345
80000264:	67858593          	addi	a1,a1,1656 # 12345678 <_start-0x6dcba988>
80000268:	fff00613          	li	a2,-1
8000026c:	f00580d3          	fmv.w.x	ft1,a1
80000270:	f0060153          	fmv.w.x	ft2,a2
80000274:	20209053          	fsgnjn.s	ft0,ft1,ft2
80000278:	e0000553          	fmv.x.w	a0,ft0
8000027c:	12345eb7          	lui	t4,0x12345
80000280:	678e8e93          	addi	t4,t4,1656 # 12345678 <_start-0x6dcba988>
80000284:	01500193          	li	gp,21
80000288:	11d51863          	bne	a0,t4,80000398 <fail>

8000028c <test_22>:
8000028c:	923455b7          	lui	a1,0x92345
80000290:	67858593          	addi	a1,a1,1656 # 92345678 <_end+0x12343678>
80000294:	00000613          	li	a2,0
80000298:	f00580d3          	fmv.w.x	ft1,a1
8000029c:	f0060153          	fmv.w.x	ft2,a2
800002a0:	20209053          	fsgnjn.s	ft0,ft1,ft2
800002a4:	e0000553          	fmv.x.w	a0,ft0
800002a8:	92345eb7          	lui	t4,0x92345
800002ac:	678e8e93          	addi	t4,t4,1656 # 92345678 <_end+0x12343678>
800002b0:	01600193          	li	gp,22
800002b4:	0fd51263          	bne	a0,t4,80000398 <fail>

800002b8 <test_23>:
800002b8:	923455b7          	lui	a1,0x92345
800002bc:	67858593          	addi	a1,a1,1656 # 92345678 <_end+0x12343678>
800002c0:	fff00613          	li	a2,-1
800002c4:	f00580d3          	fmv.w.x	ft1,a1
800002c8:	f0060153          	fmv.w.x	ft2,a2
800002cc:	20209053          	fsgnjn.s	ft0,ft1,ft2
800002d0:	e0000553          	fmv.x.w	a0,ft0
800002d4:	12345eb7          	lui	t4,0x12345
800002d8:	678e8e93          	addi	t4,t4,1656 # 12345678 <_start-0x6dcba988>
800002dc:	01700193          	li	gp,23
800002e0:	0bd51c63          	bne	a0,t4,80000398 <fail>

800002e4 <test_30>:
800002e4:	123455b7          	lui	a1,0x12345
800002e8:	67858593          	addi	a1,a1,1656 # 12345678 <_start-0x6dcba988>
800002ec:	00000613          	li	a2,0
800002f0:	f00580d3          	fmv.w.x	ft1,a1
800002f4:	f0060153          	fmv.w.x	ft2,a2
800002f8:	2020a053          	fsgnjx.s	ft0,ft1,ft2
800002fc:	e0000553          	fmv.x.w	a0,ft0
80000300:	12345eb7          	lui	t4,0x12345
80000304:	678e8e93          	addi	t4,t4,1656 # 12345678 <_start-0x6dcba988>
80000308:	01e00193          	li	gp,30
8000030c:	09d51663          	bne	a0,t4,80000398 <fail>

80000310 <test_31>:
80000310:	123455b7          	lui	a1,0x12345
80000314:	67858593          	addi	a1,a1,1656 # 12345678 <_start-0x6dcba988>
80000318:	fff00613          	li	a2,-1
8000031c:	f00580d3          	fmv.w.x	ft1,a1
80000320:	f0060153          	fmv.w.x	ft2,a2
80000324:	2020a053          	fsgnjx.s	ft0,ft1,ft2
80000328:	e0000553          	fmv.x.w	a0,ft0
8000032c:	92345eb7          	lui	t4,0x92345
80000330:	678e8e93          	addi	t4,t4,1656 # 92345678 <_end+0x12343678>
80000334:	01f00193          	li	gp,31
80000338:	07d51063          	bne	a0,t4,80000398 <fail>

8000033c <test_32>:
8000033c:	923455b7          	lui	a1,0x92345
80000340:	67858593          	addi	a1,a1,1656 # 92345678 <_end+0x12343678>
80000344:	00000613          	li	a2,0
80000348:	f00580d3          	fmv.w.x	ft1,a1
8000034c:	f0060153          	fmv.w.x	ft2,a2
80000350:	2020a053          	fsgnjx.s	ft0,ft1,ft2
80000354:	e0000553          	fmv.x.w	a0,ft0
80000358:	92345eb7          	lui	t4,0x92345
8000035c:	678e8e93          	addi	t4,t4,1656 # 92345678 <_end+0x12343678>
80000360:	02000193          	li	gp,32
80000364:	03d51a63          	bne	a0,t4,80000398 <fail>

80000368 <test_33>:
80000368:	923455b7          	lui	a1,0x92345
8000036c:	67858593          	addi	a1,a1,1656 # 92345678 <_end+0x12343678>
80000370:	fff00613          	li	a2,-1
80000374:	f00580d3          	fmv.w.x	ft1,a1
80000378:	f0060153          	fmv.w.x	ft2,a2
8000037c:	2020a053          	fsgnjx.s	ft0,ft1,ft2
80000380:	e0000553          	fmv.x.w	a0,ft0
80000384:	12345eb7          	lui	t4,0x12345
80000388:	678e8e93          	addi	t4,t4,1656 # 12345678 <_start-0x6dcba988>
8000038c:	02100193          	li	gp,33
80000390:	01d51463          	bne	a0,t4,80000398 <fail>
80000394:	00301c63          	bne	zero,gp,800003ac <pass>

80000398 <fail>:
80000398:	0ff0000f          	fence
8000039c:	00018063          	beqz	gp,8000039c <fail+0x4>
800003a0:	00119193          	slli	gp,gp,0x1
800003a4:	0011e193          	ori	gp,gp,1
800003a8:	00000073          	ecall

800003ac <pass>:
800003ac:	0ff0000f          	fence
800003b0:	00100193          	li	gp,1
800003b4:	00000073          	ecall
800003b8:	c0001073          	unimp
800003bc:	0000                	unimp
800003be:	0000                	unimp
800003c0:	0000                	unimp
800003c2:	0000                	unimp
