
rv64ui-p-sb:     file format elf64-littleriscv


Disassembly of section .text.init:

0000000080000000 <_start>:
    80000000:	04c0006f          	j	8000004c <reset_vector>

0000000080000004 <trap_vector>:
    80000004:	34202f73          	csrr	t5,mcause
    80000008:	00800f93          	li	t6,8
    8000000c:	03ff0a63          	beq	t5,t6,80000040 <write_tohost>
    80000010:	00900f93          	li	t6,9
    80000014:	03ff0663          	beq	t5,t6,80000040 <write_tohost>
    80000018:	00b00f93          	li	t6,11
    8000001c:	03ff0263          	beq	t5,t6,80000040 <write_tohost>
    80000020:	80000f17          	auipc	t5,0x80000
    80000024:	fe0f0f13          	addi	t5,t5,-32 # 0 <_start-0x80000000>
    80000028:	000f0463          	beqz	t5,80000030 <trap_vector+0x2c>
    8000002c:	000f0067          	jr	t5
    80000030:	34202f73          	csrr	t5,mcause
    80000034:	000f5463          	bgez	t5,8000003c <handle_exception>
    80000038:	0040006f          	j	8000003c <handle_exception>

000000008000003c <handle_exception>:
    8000003c:	5391e193          	ori	gp,gp,1337

0000000080000040 <write_tohost>:
    80000040:	00001f17          	auipc	t5,0x1
    80000044:	fc3f2023          	sw	gp,-64(t5) # 80001000 <tohost>
    80000048:	ff9ff06f          	j	80000040 <write_tohost>

000000008000004c <reset_vector>:
    8000004c:	f1402573          	csrr	a0,mhartid
    80000050:	00051063          	bnez	a0,80000050 <reset_vector+0x4>
    80000054:	00000297          	auipc	t0,0x0
    80000058:	01028293          	addi	t0,t0,16 # 80000064 <reset_vector+0x18>
    8000005c:	30529073          	csrw	mtvec,t0
    80000060:	18005073          	csrwi	satp,0
    80000064:	00000297          	auipc	t0,0x0
    80000068:	02428293          	addi	t0,t0,36 # 80000088 <reset_vector+0x3c>
    8000006c:	30529073          	csrw	mtvec,t0
    80000070:	0010029b          	addiw	t0,zero,1
    80000074:	03529293          	slli	t0,t0,0x35
    80000078:	fff28293          	addi	t0,t0,-1
    8000007c:	3b029073          	csrw	pmpaddr0,t0
    80000080:	01f00293          	li	t0,31
    80000084:	3a029073          	csrw	pmpcfg0,t0
    80000088:	00000297          	auipc	t0,0x0
    8000008c:	01828293          	addi	t0,t0,24 # 800000a0 <reset_vector+0x54>
    80000090:	30529073          	csrw	mtvec,t0
    80000094:	30205073          	csrwi	medeleg,0
    80000098:	30305073          	csrwi	mideleg,0
    8000009c:	30405073          	csrwi	mie,0
    800000a0:	00000193          	li	gp,0
    800000a4:	00000297          	auipc	t0,0x0
    800000a8:	f6028293          	addi	t0,t0,-160 # 80000004 <trap_vector>
    800000ac:	30529073          	csrw	mtvec,t0
    800000b0:	00100513          	li	a0,1
    800000b4:	01f51513          	slli	a0,a0,0x1f
    800000b8:	00055863          	bgez	a0,800000c8 <reset_vector+0x7c>
    800000bc:	0ff0000f          	fence
    800000c0:	00100193          	li	gp,1
    800000c4:	00000073          	ecall
    800000c8:	80000297          	auipc	t0,0x80000
    800000cc:	f3828293          	addi	t0,t0,-200 # 0 <_start-0x80000000>
    800000d0:	00028e63          	beqz	t0,800000ec <reset_vector+0xa0>
    800000d4:	10529073          	csrw	stvec,t0
    800000d8:	0000b2b7          	lui	t0,0xb
    800000dc:	1092829b          	addiw	t0,t0,265
    800000e0:	30229073          	csrw	medeleg,t0
    800000e4:	30202373          	csrr	t1,medeleg
    800000e8:	f4629ae3          	bne	t0,t1,8000003c <handle_exception>
    800000ec:	30005073          	csrwi	mstatus,0
    800000f0:	00000297          	auipc	t0,0x0
    800000f4:	01428293          	addi	t0,t0,20 # 80000104 <test_2>
    800000f8:	34129073          	csrw	mepc,t0
    800000fc:	f1402573          	csrr	a0,mhartid
    80000100:	30200073          	mret

0000000080000104 <test_2>:
    80000104:	00002097          	auipc	ra,0x2
    80000108:	efc08093          	addi	ra,ra,-260 # 80002000 <begin_signature>
    8000010c:	faa00113          	li	sp,-86
    80000110:	00208023          	sb	sp,0(ra)
    80000114:	00008f03          	lb	t5,0(ra)
    80000118:	faa00e93          	li	t4,-86
    8000011c:	00200193          	li	gp,2
    80000120:	3ddf1c63          	bne	t5,t4,800004f8 <fail>

0000000080000124 <test_3>:
    80000124:	00002097          	auipc	ra,0x2
    80000128:	edc08093          	addi	ra,ra,-292 # 80002000 <begin_signature>
    8000012c:	00000113          	li	sp,0
    80000130:	002080a3          	sb	sp,1(ra)
    80000134:	00108f03          	lb	t5,1(ra)
    80000138:	00000e93          	li	t4,0
    8000013c:	00300193          	li	gp,3
    80000140:	3bdf1c63          	bne	t5,t4,800004f8 <fail>

0000000080000144 <test_4>:
    80000144:	00002097          	auipc	ra,0x2
    80000148:	ebc08093          	addi	ra,ra,-324 # 80002000 <begin_signature>
    8000014c:	fffff137          	lui	sp,0xfffff
    80000150:	fa01011b          	addiw	sp,sp,-96
    80000154:	00208123          	sb	sp,2(ra)
    80000158:	00209f03          	lh	t5,2(ra)
    8000015c:	fffffeb7          	lui	t4,0xfffff
    80000160:	fa0e8e9b          	addiw	t4,t4,-96
    80000164:	00400193          	li	gp,4
    80000168:	39df1863          	bne	t5,t4,800004f8 <fail>

000000008000016c <test_5>:
    8000016c:	00002097          	auipc	ra,0x2
    80000170:	e9408093          	addi	ra,ra,-364 # 80002000 <begin_signature>
    80000174:	00a00113          	li	sp,10
    80000178:	002081a3          	sb	sp,3(ra)
    8000017c:	00308f03          	lb	t5,3(ra)
    80000180:	00a00e93          	li	t4,10
    80000184:	00500193          	li	gp,5
    80000188:	37df1863          	bne	t5,t4,800004f8 <fail>

000000008000018c <test_6>:
    8000018c:	00002097          	auipc	ra,0x2
    80000190:	e7b08093          	addi	ra,ra,-389 # 80002007 <tdat8>
    80000194:	faa00113          	li	sp,-86
    80000198:	fe208ea3          	sb	sp,-3(ra)
    8000019c:	ffd08f03          	lb	t5,-3(ra)
    800001a0:	faa00e93          	li	t4,-86
    800001a4:	00600193          	li	gp,6
    800001a8:	35df1863          	bne	t5,t4,800004f8 <fail>

00000000800001ac <test_7>:
    800001ac:	00002097          	auipc	ra,0x2
    800001b0:	e5b08093          	addi	ra,ra,-421 # 80002007 <tdat8>
    800001b4:	00000113          	li	sp,0
    800001b8:	fe208f23          	sb	sp,-2(ra)
    800001bc:	ffe08f03          	lb	t5,-2(ra)
    800001c0:	00000e93          	li	t4,0
    800001c4:	00700193          	li	gp,7
    800001c8:	33df1863          	bne	t5,t4,800004f8 <fail>

00000000800001cc <test_8>:
    800001cc:	00002097          	auipc	ra,0x2
    800001d0:	e3b08093          	addi	ra,ra,-453 # 80002007 <tdat8>
    800001d4:	fa000113          	li	sp,-96
    800001d8:	fe208fa3          	sb	sp,-1(ra)
    800001dc:	fff08f03          	lb	t5,-1(ra)
    800001e0:	fa000e93          	li	t4,-96
    800001e4:	00800193          	li	gp,8
    800001e8:	31df1863          	bne	t5,t4,800004f8 <fail>

00000000800001ec <test_9>:
    800001ec:	00002097          	auipc	ra,0x2
    800001f0:	e1b08093          	addi	ra,ra,-485 # 80002007 <tdat8>
    800001f4:	00a00113          	li	sp,10
    800001f8:	00208023          	sb	sp,0(ra)
    800001fc:	00008f03          	lb	t5,0(ra)
    80000200:	00a00e93          	li	t4,10
    80000204:	00900193          	li	gp,9
    80000208:	2fdf1863          	bne	t5,t4,800004f8 <fail>

000000008000020c <test_10>:
    8000020c:	00002097          	auipc	ra,0x2
    80000210:	dfc08093          	addi	ra,ra,-516 # 80002008 <tdat9>
    80000214:	12345137          	lui	sp,0x12345
    80000218:	6781011b          	addiw	sp,sp,1656
    8000021c:	fe008213          	addi	tp,ra,-32
    80000220:	02220023          	sb	sp,32(tp) # 20 <_start-0x7fffffe0>
    80000224:	00008283          	lb	t0,0(ra)
    80000228:	07800e93          	li	t4,120
    8000022c:	00a00193          	li	gp,10
    80000230:	2dd29463          	bne	t0,t4,800004f8 <fail>

0000000080000234 <test_11>:
    80000234:	00002097          	auipc	ra,0x2
    80000238:	dd408093          	addi	ra,ra,-556 # 80002008 <tdat9>
    8000023c:	00003137          	lui	sp,0x3
    80000240:	0981011b          	addiw	sp,sp,152
    80000244:	ffa08093          	addi	ra,ra,-6
    80000248:	002083a3          	sb	sp,7(ra)
    8000024c:	00002217          	auipc	tp,0x2
    80000250:	dbd20213          	addi	tp,tp,-579 # 80002009 <tdat10>
    80000254:	00020283          	lb	t0,0(tp) # 0 <_start-0x80000000>
    80000258:	f9800e93          	li	t4,-104
    8000025c:	00b00193          	li	gp,11
    80000260:	29d29c63          	bne	t0,t4,800004f8 <fail>

0000000080000264 <test_12>:
    80000264:	00c00193          	li	gp,12
    80000268:	00000213          	li	tp,0
    8000026c:	fdd00093          	li	ra,-35
    80000270:	00002117          	auipc	sp,0x2
    80000274:	d9010113          	addi	sp,sp,-624 # 80002000 <begin_signature>
    80000278:	00110023          	sb	ra,0(sp)
    8000027c:	00010f03          	lb	t5,0(sp)
    80000280:	fdd00e93          	li	t4,-35
    80000284:	27df1a63          	bne	t5,t4,800004f8 <fail>
    80000288:	00120213          	addi	tp,tp,1 # 1 <_start-0x7fffffff>
    8000028c:	00200293          	li	t0,2
    80000290:	fc521ee3          	bne	tp,t0,8000026c <test_12+0x8>

0000000080000294 <test_13>:
    80000294:	00d00193          	li	gp,13
    80000298:	00000213          	li	tp,0
    8000029c:	fcd00093          	li	ra,-51
    800002a0:	00002117          	auipc	sp,0x2
    800002a4:	d6010113          	addi	sp,sp,-672 # 80002000 <begin_signature>
    800002a8:	00000013          	nop
    800002ac:	001100a3          	sb	ra,1(sp)
    800002b0:	00110f03          	lb	t5,1(sp)
    800002b4:	fcd00e93          	li	t4,-51
    800002b8:	25df1063          	bne	t5,t4,800004f8 <fail>
    800002bc:	00120213          	addi	tp,tp,1 # 1 <_start-0x7fffffff>
    800002c0:	00200293          	li	t0,2
    800002c4:	fc521ce3          	bne	tp,t0,8000029c <test_13+0x8>

00000000800002c8 <test_14>:
    800002c8:	00e00193          	li	gp,14
    800002cc:	00000213          	li	tp,0
    800002d0:	fcc00093          	li	ra,-52
    800002d4:	00002117          	auipc	sp,0x2
    800002d8:	d2c10113          	addi	sp,sp,-724 # 80002000 <begin_signature>
    800002dc:	00000013          	nop
    800002e0:	00000013          	nop
    800002e4:	00110123          	sb	ra,2(sp)
    800002e8:	00210f03          	lb	t5,2(sp)
    800002ec:	fcc00e93          	li	t4,-52
    800002f0:	21df1463          	bne	t5,t4,800004f8 <fail>
    800002f4:	00120213          	addi	tp,tp,1 # 1 <_start-0x7fffffff>
    800002f8:	00200293          	li	t0,2
    800002fc:	fc521ae3          	bne	tp,t0,800002d0 <test_14+0x8>

0000000080000300 <test_15>:
    80000300:	00f00193          	li	gp,15
    80000304:	00000213          	li	tp,0
    80000308:	fbc00093          	li	ra,-68
    8000030c:	00000013          	nop
    80000310:	00002117          	auipc	sp,0x2
    80000314:	cf010113          	addi	sp,sp,-784 # 80002000 <begin_signature>
    80000318:	001101a3          	sb	ra,3(sp)
    8000031c:	00310f03          	lb	t5,3(sp)
    80000320:	fbc00e93          	li	t4,-68
    80000324:	1ddf1a63          	bne	t5,t4,800004f8 <fail>
    80000328:	00120213          	addi	tp,tp,1 # 1 <_start-0x7fffffff>
    8000032c:	00200293          	li	t0,2
    80000330:	fc521ce3          	bne	tp,t0,80000308 <test_15+0x8>

0000000080000334 <test_16>:
    80000334:	01000193          	li	gp,16
    80000338:	00000213          	li	tp,0
    8000033c:	fbb00093          	li	ra,-69
    80000340:	00000013          	nop
    80000344:	00002117          	auipc	sp,0x2
    80000348:	cbc10113          	addi	sp,sp,-836 # 80002000 <begin_signature>
    8000034c:	00000013          	nop
    80000350:	00110223          	sb	ra,4(sp)
    80000354:	00410f03          	lb	t5,4(sp)
    80000358:	fbb00e93          	li	t4,-69
    8000035c:	19df1e63          	bne	t5,t4,800004f8 <fail>
    80000360:	00120213          	addi	tp,tp,1 # 1 <_start-0x7fffffff>
    80000364:	00200293          	li	t0,2
    80000368:	fc521ae3          	bne	tp,t0,8000033c <test_16+0x8>

000000008000036c <test_17>:
    8000036c:	01100193          	li	gp,17
    80000370:	00000213          	li	tp,0
    80000374:	fab00093          	li	ra,-85
    80000378:	00000013          	nop
    8000037c:	00000013          	nop
    80000380:	00002117          	auipc	sp,0x2
    80000384:	c8010113          	addi	sp,sp,-896 # 80002000 <begin_signature>
    80000388:	001102a3          	sb	ra,5(sp)
    8000038c:	00510f03          	lb	t5,5(sp)
    80000390:	fab00e93          	li	t4,-85
    80000394:	17df1263          	bne	t5,t4,800004f8 <fail>
    80000398:	00120213          	addi	tp,tp,1 # 1 <_start-0x7fffffff>
    8000039c:	00200293          	li	t0,2
    800003a0:	fc521ae3          	bne	tp,t0,80000374 <test_17+0x8>

00000000800003a4 <test_18>:
    800003a4:	01200193          	li	gp,18
    800003a8:	00000213          	li	tp,0
    800003ac:	00002117          	auipc	sp,0x2
    800003b0:	c5410113          	addi	sp,sp,-940 # 80002000 <begin_signature>
    800003b4:	03300093          	li	ra,51
    800003b8:	00110023          	sb	ra,0(sp)
    800003bc:	00010f03          	lb	t5,0(sp)
    800003c0:	03300e93          	li	t4,51
    800003c4:	13df1a63          	bne	t5,t4,800004f8 <fail>
    800003c8:	00120213          	addi	tp,tp,1 # 1 <_start-0x7fffffff>
    800003cc:	00200293          	li	t0,2
    800003d0:	fc521ee3          	bne	tp,t0,800003ac <test_18+0x8>

00000000800003d4 <test_19>:
    800003d4:	01300193          	li	gp,19
    800003d8:	00000213          	li	tp,0
    800003dc:	00002117          	auipc	sp,0x2
    800003e0:	c2410113          	addi	sp,sp,-988 # 80002000 <begin_signature>
    800003e4:	02300093          	li	ra,35
    800003e8:	00000013          	nop
    800003ec:	001100a3          	sb	ra,1(sp)
    800003f0:	00110f03          	lb	t5,1(sp)
    800003f4:	02300e93          	li	t4,35
    800003f8:	11df1063          	bne	t5,t4,800004f8 <fail>
    800003fc:	00120213          	addi	tp,tp,1 # 1 <_start-0x7fffffff>
    80000400:	00200293          	li	t0,2
    80000404:	fc521ce3          	bne	tp,t0,800003dc <test_19+0x8>

0000000080000408 <test_20>:
    80000408:	01400193          	li	gp,20
    8000040c:	00000213          	li	tp,0
    80000410:	00002117          	auipc	sp,0x2
    80000414:	bf010113          	addi	sp,sp,-1040 # 80002000 <begin_signature>
    80000418:	02200093          	li	ra,34
    8000041c:	00000013          	nop
    80000420:	00000013          	nop
    80000424:	00110123          	sb	ra,2(sp)
    80000428:	00210f03          	lb	t5,2(sp)
    8000042c:	02200e93          	li	t4,34
    80000430:	0ddf1463          	bne	t5,t4,800004f8 <fail>
    80000434:	00120213          	addi	tp,tp,1 # 1 <_start-0x7fffffff>
    80000438:	00200293          	li	t0,2
    8000043c:	fc521ae3          	bne	tp,t0,80000410 <test_20+0x8>

0000000080000440 <test_21>:
    80000440:	01500193          	li	gp,21
    80000444:	00000213          	li	tp,0
    80000448:	00002117          	auipc	sp,0x2
    8000044c:	bb810113          	addi	sp,sp,-1096 # 80002000 <begin_signature>
    80000450:	00000013          	nop
    80000454:	01200093          	li	ra,18
    80000458:	001101a3          	sb	ra,3(sp)
    8000045c:	00310f03          	lb	t5,3(sp)
    80000460:	01200e93          	li	t4,18
    80000464:	09df1a63          	bne	t5,t4,800004f8 <fail>
    80000468:	00120213          	addi	tp,tp,1 # 1 <_start-0x7fffffff>
    8000046c:	00200293          	li	t0,2
    80000470:	fc521ce3          	bne	tp,t0,80000448 <test_21+0x8>

0000000080000474 <test_22>:
    80000474:	01600193          	li	gp,22
    80000478:	00000213          	li	tp,0
    8000047c:	00002117          	auipc	sp,0x2
    80000480:	b8410113          	addi	sp,sp,-1148 # 80002000 <begin_signature>
    80000484:	00000013          	nop
    80000488:	01100093          	li	ra,17
    8000048c:	00000013          	nop
    80000490:	00110223          	sb	ra,4(sp)
    80000494:	00410f03          	lb	t5,4(sp)
    80000498:	01100e93          	li	t4,17
    8000049c:	05df1e63          	bne	t5,t4,800004f8 <fail>
    800004a0:	00120213          	addi	tp,tp,1 # 1 <_start-0x7fffffff>
    800004a4:	00200293          	li	t0,2
    800004a8:	fc521ae3          	bne	tp,t0,8000047c <test_22+0x8>

00000000800004ac <test_23>:
    800004ac:	01700193          	li	gp,23
    800004b0:	00000213          	li	tp,0
    800004b4:	00002117          	auipc	sp,0x2
    800004b8:	b4c10113          	addi	sp,sp,-1204 # 80002000 <begin_signature>
    800004bc:	00000013          	nop
    800004c0:	00000013          	nop
    800004c4:	00100093          	li	ra,1
    800004c8:	001102a3          	sb	ra,5(sp)
    800004cc:	00510f03          	lb	t5,5(sp)
    800004d0:	00100e93          	li	t4,1
    800004d4:	03df1263          	bne	t5,t4,800004f8 <fail>
    800004d8:	00120213          	addi	tp,tp,1 # 1 <_start-0x7fffffff>
    800004dc:	00200293          	li	t0,2
    800004e0:	fc521ae3          	bne	tp,t0,800004b4 <test_23+0x8>
    800004e4:	0ef00513          	li	a0,239
    800004e8:	00002597          	auipc	a1,0x2
    800004ec:	b1858593          	addi	a1,a1,-1256 # 80002000 <begin_signature>
    800004f0:	00a581a3          	sb	a0,3(a1)
    800004f4:	00301c63          	bne	zero,gp,8000050c <pass>

00000000800004f8 <fail>:
    800004f8:	0ff0000f          	fence
    800004fc:	00018063          	beqz	gp,800004fc <fail+0x4>
    80000500:	00119193          	slli	gp,gp,0x1
    80000504:	0011e193          	ori	gp,gp,1
    80000508:	00000073          	ecall

000000008000050c <pass>:
    8000050c:	0ff0000f          	fence
    80000510:	00100193          	li	gp,1
    80000514:	00000073          	ecall
    80000518:	c0001073          	unimp
    8000051c:	0000                	unimp
    8000051e:	0000                	unimp
    80000520:	0000                	unimp
    80000522:	0000                	unimp
    80000524:	0000                	unimp
    80000526:	0000                	unimp
    80000528:	0000                	unimp
    8000052a:	0000                	unimp
    8000052c:	0000                	unimp
    8000052e:	0000                	unimp
    80000530:	0000                	unimp
    80000532:	0000                	unimp
    80000534:	0000                	unimp
    80000536:	0000                	unimp
    80000538:	0000                	unimp
    8000053a:	0000                	unimp
    8000053c:	0000                	unimp
    8000053e:	0000                	unimp
    80000540:	0000                	unimp
    80000542:	0000                	unimp
