
rv64ui-p-slli:     file format elf64-littleriscv


Disassembly of section .text.init:

0000000080000000 <_start>:
    80000000:	04c0006f          	j	8000004c <reset_vector>

0000000080000004 <trap_vector>:
    80000004:	34202f73          	csrr	t5,mcause
    80000008:	00800f93          	li	t6,8
    8000000c:	03ff0a63          	beq	t5,t6,80000040 <write_tohost>
    80000010:	00900f93          	li	t6,9
    80000014:	03ff0663          	beq	t5,t6,80000040 <write_tohost>
    80000018:	00b00f93          	li	t6,11
    8000001c:	03ff0263          	beq	t5,t6,80000040 <write_tohost>
    80000020:	80000f17          	auipc	t5,0x80000
    80000024:	fe0f0f13          	addi	t5,t5,-32 # 0 <_start-0x80000000>
    80000028:	000f0463          	beqz	t5,80000030 <trap_vector+0x2c>
    8000002c:	000f0067          	jr	t5
    80000030:	34202f73          	csrr	t5,mcause
    80000034:	000f5463          	bgez	t5,8000003c <handle_exception>
    80000038:	0040006f          	j	8000003c <handle_exception>

000000008000003c <handle_exception>:
    8000003c:	5391e193          	ori	gp,gp,1337

0000000080000040 <write_tohost>:
    80000040:	00001f17          	auipc	t5,0x1
    80000044:	fc3f2023          	sw	gp,-64(t5) # 80001000 <tohost>
    80000048:	ff9ff06f          	j	80000040 <write_tohost>

000000008000004c <reset_vector>:
    8000004c:	f1402573          	csrr	a0,mhartid
    80000050:	00051063          	bnez	a0,80000050 <reset_vector+0x4>
    80000054:	00000297          	auipc	t0,0x0
    80000058:	01028293          	addi	t0,t0,16 # 80000064 <reset_vector+0x18>
    8000005c:	30529073          	csrw	mtvec,t0
    80000060:	18005073          	csrwi	satp,0
    80000064:	00000297          	auipc	t0,0x0
    80000068:	02428293          	addi	t0,t0,36 # 80000088 <reset_vector+0x3c>
    8000006c:	30529073          	csrw	mtvec,t0
    80000070:	0010029b          	addiw	t0,zero,1
    80000074:	03529293          	slli	t0,t0,0x35
    80000078:	fff28293          	addi	t0,t0,-1
    8000007c:	3b029073          	csrw	pmpaddr0,t0
    80000080:	01f00293          	li	t0,31
    80000084:	3a029073          	csrw	pmpcfg0,t0
    80000088:	00000297          	auipc	t0,0x0
    8000008c:	01828293          	addi	t0,t0,24 # 800000a0 <reset_vector+0x54>
    80000090:	30529073          	csrw	mtvec,t0
    80000094:	30205073          	csrwi	medeleg,0
    80000098:	30305073          	csrwi	mideleg,0
    8000009c:	30405073          	csrwi	mie,0
    800000a0:	00000193          	li	gp,0
    800000a4:	00000297          	auipc	t0,0x0
    800000a8:	f6028293          	addi	t0,t0,-160 # 80000004 <trap_vector>
    800000ac:	30529073          	csrw	mtvec,t0
    800000b0:	00100513          	li	a0,1
    800000b4:	01f51513          	slli	a0,a0,0x1f
    800000b8:	00055863          	bgez	a0,800000c8 <reset_vector+0x7c>
    800000bc:	0ff0000f          	fence
    800000c0:	00100193          	li	gp,1
    800000c4:	00000073          	ecall
    800000c8:	80000297          	auipc	t0,0x80000
    800000cc:	f3828293          	addi	t0,t0,-200 # 0 <_start-0x80000000>
    800000d0:	00028e63          	beqz	t0,800000ec <reset_vector+0xa0>
    800000d4:	10529073          	csrw	stvec,t0
    800000d8:	0000b2b7          	lui	t0,0xb
    800000dc:	1092829b          	addiw	t0,t0,265
    800000e0:	30229073          	csrw	medeleg,t0
    800000e4:	30202373          	csrr	t1,medeleg
    800000e8:	f4629ae3          	bne	t0,t1,8000003c <handle_exception>
    800000ec:	30005073          	csrwi	mstatus,0
    800000f0:	00000297          	auipc	t0,0x0
    800000f4:	01428293          	addi	t0,t0,20 # 80000104 <test_2>
    800000f8:	34129073          	csrw	mepc,t0
    800000fc:	f1402573          	csrr	a0,mhartid
    80000100:	30200073          	mret

0000000080000104 <test_2>:
    80000104:	00100093          	li	ra,1
    80000108:	00009f13          	slli	t5,ra,0x0
    8000010c:	00100e93          	li	t4,1
    80000110:	00200193          	li	gp,2
    80000114:	2fdf1463          	bne	t5,t4,800003fc <fail>

0000000080000118 <test_3>:
    80000118:	00100093          	li	ra,1
    8000011c:	00109f13          	slli	t5,ra,0x1
    80000120:	00200e93          	li	t4,2
    80000124:	00300193          	li	gp,3
    80000128:	2ddf1a63          	bne	t5,t4,800003fc <fail>

000000008000012c <test_4>:
    8000012c:	00100093          	li	ra,1
    80000130:	00709f13          	slli	t5,ra,0x7
    80000134:	08000e93          	li	t4,128
    80000138:	00400193          	li	gp,4
    8000013c:	2ddf1063          	bne	t5,t4,800003fc <fail>

0000000080000140 <test_5>:
    80000140:	00100093          	li	ra,1
    80000144:	00e09f13          	slli	t5,ra,0xe
    80000148:	00004eb7          	lui	t4,0x4
    8000014c:	00500193          	li	gp,5
    80000150:	2bdf1663          	bne	t5,t4,800003fc <fail>

0000000080000154 <test_6>:
    80000154:	00100093          	li	ra,1
    80000158:	01f09f13          	slli	t5,ra,0x1f
    8000015c:	00100e9b          	addiw	t4,zero,1
    80000160:	01fe9e93          	slli	t4,t4,0x1f
    80000164:	00600193          	li	gp,6
    80000168:	29df1a63          	bne	t5,t4,800003fc <fail>

000000008000016c <test_7>:
    8000016c:	fff00093          	li	ra,-1
    80000170:	00009f13          	slli	t5,ra,0x0
    80000174:	fff00e93          	li	t4,-1
    80000178:	00700193          	li	gp,7
    8000017c:	29df1063          	bne	t5,t4,800003fc <fail>

0000000080000180 <test_8>:
    80000180:	fff00093          	li	ra,-1
    80000184:	00109f13          	slli	t5,ra,0x1
    80000188:	ffe00e93          	li	t4,-2
    8000018c:	00800193          	li	gp,8
    80000190:	27df1663          	bne	t5,t4,800003fc <fail>

0000000080000194 <test_9>:
    80000194:	fff00093          	li	ra,-1
    80000198:	00709f13          	slli	t5,ra,0x7
    8000019c:	f8000e93          	li	t4,-128
    800001a0:	00900193          	li	gp,9
    800001a4:	25df1c63          	bne	t5,t4,800003fc <fail>

00000000800001a8 <test_10>:
    800001a8:	fff00093          	li	ra,-1
    800001ac:	00e09f13          	slli	t5,ra,0xe
    800001b0:	ffffceb7          	lui	t4,0xffffc
    800001b4:	00a00193          	li	gp,10
    800001b8:	25df1263          	bne	t5,t4,800003fc <fail>

00000000800001bc <test_11>:
    800001bc:	fff00093          	li	ra,-1
    800001c0:	01f09f13          	slli	t5,ra,0x1f
    800001c4:	80000eb7          	lui	t4,0x80000
    800001c8:	00b00193          	li	gp,11
    800001cc:	23df1863          	bne	t5,t4,800003fc <fail>

00000000800001d0 <test_12>:
    800001d0:	212120b7          	lui	ra,0x21212
    800001d4:	1210809b          	addiw	ra,ra,289
    800001d8:	00009f13          	slli	t5,ra,0x0
    800001dc:	21212eb7          	lui	t4,0x21212
    800001e0:	121e8e9b          	addiw	t4,t4,289
    800001e4:	00c00193          	li	gp,12
    800001e8:	21df1a63          	bne	t5,t4,800003fc <fail>

00000000800001ec <test_13>:
    800001ec:	212120b7          	lui	ra,0x21212
    800001f0:	1210809b          	addiw	ra,ra,289
    800001f4:	00109f13          	slli	t5,ra,0x1
    800001f8:	42424eb7          	lui	t4,0x42424
    800001fc:	242e8e9b          	addiw	t4,t4,578
    80000200:	00d00193          	li	gp,13
    80000204:	1fdf1c63          	bne	t5,t4,800003fc <fail>

0000000080000208 <test_14>:
    80000208:	212120b7          	lui	ra,0x21212
    8000020c:	1210809b          	addiw	ra,ra,289
    80000210:	00709f13          	slli	t5,ra,0x7
    80000214:	01091eb7          	lui	t4,0x1091
    80000218:	909e8e9b          	addiw	t4,t4,-1783
    8000021c:	00ce9e93          	slli	t4,t4,0xc
    80000220:	080e8e93          	addi	t4,t4,128 # 1091080 <_start-0x7ef6ef80>
    80000224:	00e00193          	li	gp,14
    80000228:	1ddf1a63          	bne	t5,t4,800003fc <fail>

000000008000022c <test_15>:
    8000022c:	212120b7          	lui	ra,0x21212
    80000230:	1210809b          	addiw	ra,ra,289
    80000234:	00e09f13          	slli	t5,ra,0xe
    80000238:	21212eb7          	lui	t4,0x21212
    8000023c:	121e8e9b          	addiw	t4,t4,289
    80000240:	00ee9e93          	slli	t4,t4,0xe
    80000244:	00f00193          	li	gp,15
    80000248:	1bdf1a63          	bne	t5,t4,800003fc <fail>

000000008000024c <test_16>:
    8000024c:	212120b7          	lui	ra,0x21212
    80000250:	1210809b          	addiw	ra,ra,289
    80000254:	01f09f13          	slli	t5,ra,0x1f
    80000258:	21212eb7          	lui	t4,0x21212
    8000025c:	121e8e9b          	addiw	t4,t4,289
    80000260:	01fe9e93          	slli	t4,t4,0x1f
    80000264:	01000193          	li	gp,16
    80000268:	19df1a63          	bne	t5,t4,800003fc <fail>

000000008000026c <test_50>:
    8000026c:	00100093          	li	ra,1
    80000270:	03f09f13          	slli	t5,ra,0x3f
    80000274:	fff00e9b          	addiw	t4,zero,-1
    80000278:	03fe9e93          	slli	t4,t4,0x3f
    8000027c:	03200193          	li	gp,50
    80000280:	17df1e63          	bne	t5,t4,800003fc <fail>

0000000080000284 <test_51>:
    80000284:	fff00093          	li	ra,-1
    80000288:	02709f13          	slli	t5,ra,0x27
    8000028c:	fff00e9b          	addiw	t4,zero,-1
    80000290:	027e9e93          	slli	t4,t4,0x27
    80000294:	03300193          	li	gp,51
    80000298:	17df1263          	bne	t5,t4,800003fc <fail>

000000008000029c <test_52>:
    8000029c:	212120b7          	lui	ra,0x21212
    800002a0:	1210809b          	addiw	ra,ra,289
    800002a4:	02b09f13          	slli	t5,ra,0x2b
    800002a8:	00012eb7          	lui	t4,0x12
    800002ac:	121e8e9b          	addiw	t4,t4,289
    800002b0:	02be9e93          	slli	t4,t4,0x2b
    800002b4:	03400193          	li	gp,52
    800002b8:	15df1263          	bne	t5,t4,800003fc <fail>

00000000800002bc <test_17>:
    800002bc:	00100093          	li	ra,1
    800002c0:	00709093          	slli	ra,ra,0x7
    800002c4:	08000e93          	li	t4,128
    800002c8:	01100193          	li	gp,17
    800002cc:	13d09863          	bne	ra,t4,800003fc <fail>

00000000800002d0 <test_18>:
    800002d0:	00000213          	li	tp,0
    800002d4:	00100093          	li	ra,1
    800002d8:	00709f13          	slli	t5,ra,0x7
    800002dc:	000f0313          	mv	t1,t5
    800002e0:	00120213          	addi	tp,tp,1 # 1 <_start-0x7fffffff>
    800002e4:	00200293          	li	t0,2
    800002e8:	fe5216e3          	bne	tp,t0,800002d4 <test_18+0x4>
    800002ec:	08000e93          	li	t4,128
    800002f0:	01200193          	li	gp,18
    800002f4:	11d31463          	bne	t1,t4,800003fc <fail>

00000000800002f8 <test_19>:
    800002f8:	00000213          	li	tp,0
    800002fc:	00100093          	li	ra,1
    80000300:	00e09f13          	slli	t5,ra,0xe
    80000304:	00000013          	nop
    80000308:	000f0313          	mv	t1,t5
    8000030c:	00120213          	addi	tp,tp,1 # 1 <_start-0x7fffffff>
    80000310:	00200293          	li	t0,2
    80000314:	fe5214e3          	bne	tp,t0,800002fc <test_19+0x4>
    80000318:	00004eb7          	lui	t4,0x4
    8000031c:	01300193          	li	gp,19
    80000320:	0dd31e63          	bne	t1,t4,800003fc <fail>

0000000080000324 <test_20>:
    80000324:	00000213          	li	tp,0
    80000328:	00100093          	li	ra,1
    8000032c:	01f09f13          	slli	t5,ra,0x1f
    80000330:	00000013          	nop
    80000334:	00000013          	nop
    80000338:	000f0313          	mv	t1,t5
    8000033c:	00120213          	addi	tp,tp,1 # 1 <_start-0x7fffffff>
    80000340:	00200293          	li	t0,2
    80000344:	fe5212e3          	bne	tp,t0,80000328 <test_20+0x4>
    80000348:	00100e9b          	addiw	t4,zero,1
    8000034c:	01fe9e93          	slli	t4,t4,0x1f
    80000350:	01400193          	li	gp,20
    80000354:	0bd31463          	bne	t1,t4,800003fc <fail>

0000000080000358 <test_21>:
    80000358:	00000213          	li	tp,0
    8000035c:	00100093          	li	ra,1
    80000360:	00709f13          	slli	t5,ra,0x7
    80000364:	00120213          	addi	tp,tp,1 # 1 <_start-0x7fffffff>
    80000368:	00200293          	li	t0,2
    8000036c:	fe5218e3          	bne	tp,t0,8000035c <test_21+0x4>
    80000370:	08000e93          	li	t4,128
    80000374:	01500193          	li	gp,21
    80000378:	09df1263          	bne	t5,t4,800003fc <fail>

000000008000037c <test_22>:
    8000037c:	00000213          	li	tp,0
    80000380:	00100093          	li	ra,1
    80000384:	00000013          	nop
    80000388:	00e09f13          	slli	t5,ra,0xe
    8000038c:	00120213          	addi	tp,tp,1 # 1 <_start-0x7fffffff>
    80000390:	00200293          	li	t0,2
    80000394:	fe5216e3          	bne	tp,t0,80000380 <test_22+0x4>
    80000398:	00004eb7          	lui	t4,0x4
    8000039c:	01600193          	li	gp,22
    800003a0:	05df1e63          	bne	t5,t4,800003fc <fail>

00000000800003a4 <test_23>:
    800003a4:	00000213          	li	tp,0
    800003a8:	00100093          	li	ra,1
    800003ac:	00000013          	nop
    800003b0:	00000013          	nop
    800003b4:	01f09f13          	slli	t5,ra,0x1f
    800003b8:	00120213          	addi	tp,tp,1 # 1 <_start-0x7fffffff>
    800003bc:	00200293          	li	t0,2
    800003c0:	fe5214e3          	bne	tp,t0,800003a8 <test_23+0x4>
    800003c4:	00100e9b          	addiw	t4,zero,1
    800003c8:	01fe9e93          	slli	t4,t4,0x1f
    800003cc:	01700193          	li	gp,23
    800003d0:	03df1663          	bne	t5,t4,800003fc <fail>

00000000800003d4 <test_24>:
    800003d4:	01f01093          	slli	ra,zero,0x1f
    800003d8:	00000e93          	li	t4,0
    800003dc:	01800193          	li	gp,24
    800003e0:	01d09e63          	bne	ra,t4,800003fc <fail>

00000000800003e4 <test_25>:
    800003e4:	02100093          	li	ra,33
    800003e8:	01409013          	slli	zero,ra,0x14
    800003ec:	00000e93          	li	t4,0
    800003f0:	01900193          	li	gp,25
    800003f4:	01d01463          	bne	zero,t4,800003fc <fail>
    800003f8:	00301c63          	bne	zero,gp,80000410 <pass>

00000000800003fc <fail>:
    800003fc:	0ff0000f          	fence
    80000400:	00018063          	beqz	gp,80000400 <fail+0x4>
    80000404:	00119193          	slli	gp,gp,0x1
    80000408:	0011e193          	ori	gp,gp,1
    8000040c:	00000073          	ecall

0000000080000410 <pass>:
    80000410:	0ff0000f          	fence
    80000414:	00100193          	li	gp,1
    80000418:	00000073          	ecall
    8000041c:	c0001073          	unimp
    80000420:	0000                	unimp
    80000422:	0000                	unimp
    80000424:	0000                	unimp
    80000426:	0000                	unimp
    80000428:	0000                	unimp
    8000042a:	0000                	unimp
    8000042c:	0000                	unimp
    8000042e:	0000                	unimp
    80000430:	0000                	unimp
    80000432:	0000                	unimp
    80000434:	0000                	unimp
    80000436:	0000                	unimp
    80000438:	0000                	unimp
    8000043a:	0000                	unimp
    8000043c:	0000                	unimp
    8000043e:	0000                	unimp
    80000440:	0000                	unimp
    80000442:	0000                	unimp
