
rv64ui-p-addw:     file format elf64-littleriscv


Disassembly of section .text.init:

0000000080000000 <_start>:
    80000000:	04c0006f          	j	8000004c <reset_vector>

0000000080000004 <trap_vector>:
    80000004:	34202f73          	csrr	t5,mcause
    80000008:	00800f93          	li	t6,8
    8000000c:	03ff0a63          	beq	t5,t6,80000040 <write_tohost>
    80000010:	00900f93          	li	t6,9
    80000014:	03ff0663          	beq	t5,t6,80000040 <write_tohost>
    80000018:	00b00f93          	li	t6,11
    8000001c:	03ff0263          	beq	t5,t6,80000040 <write_tohost>
    80000020:	80000f17          	auipc	t5,0x80000
    80000024:	fe0f0f13          	addi	t5,t5,-32 # 0 <_start-0x80000000>
    80000028:	000f0463          	beqz	t5,80000030 <trap_vector+0x2c>
    8000002c:	000f0067          	jr	t5
    80000030:	34202f73          	csrr	t5,mcause
    80000034:	000f5463          	bgez	t5,8000003c <handle_exception>
    80000038:	0040006f          	j	8000003c <handle_exception>

000000008000003c <handle_exception>:
    8000003c:	5391e193          	ori	gp,gp,1337

0000000080000040 <write_tohost>:
    80000040:	00001f17          	auipc	t5,0x1
    80000044:	fc3f2023          	sw	gp,-64(t5) # 80001000 <tohost>
    80000048:	ff9ff06f          	j	80000040 <write_tohost>

000000008000004c <reset_vector>:
    8000004c:	f1402573          	csrr	a0,mhartid
    80000050:	00051063          	bnez	a0,80000050 <reset_vector+0x4>
    80000054:	00000297          	auipc	t0,0x0
    80000058:	01028293          	addi	t0,t0,16 # 80000064 <reset_vector+0x18>
    8000005c:	30529073          	csrw	mtvec,t0
    80000060:	18005073          	csrwi	satp,0
    80000064:	00000297          	auipc	t0,0x0
    80000068:	02428293          	addi	t0,t0,36 # 80000088 <reset_vector+0x3c>
    8000006c:	30529073          	csrw	mtvec,t0
    80000070:	0010029b          	addiw	t0,zero,1
    80000074:	03529293          	slli	t0,t0,0x35
    80000078:	fff28293          	addi	t0,t0,-1
    8000007c:	3b029073          	csrw	pmpaddr0,t0
    80000080:	01f00293          	li	t0,31
    80000084:	3a029073          	csrw	pmpcfg0,t0
    80000088:	00000297          	auipc	t0,0x0
    8000008c:	01828293          	addi	t0,t0,24 # 800000a0 <reset_vector+0x54>
    80000090:	30529073          	csrw	mtvec,t0
    80000094:	30205073          	csrwi	medeleg,0
    80000098:	30305073          	csrwi	mideleg,0
    8000009c:	30405073          	csrwi	mie,0
    800000a0:	00000193          	li	gp,0
    800000a4:	00000297          	auipc	t0,0x0
    800000a8:	f6028293          	addi	t0,t0,-160 # 80000004 <trap_vector>
    800000ac:	30529073          	csrw	mtvec,t0
    800000b0:	00100513          	li	a0,1
    800000b4:	01f51513          	slli	a0,a0,0x1f
    800000b8:	00055863          	bgez	a0,800000c8 <reset_vector+0x7c>
    800000bc:	0ff0000f          	fence
    800000c0:	00100193          	li	gp,1
    800000c4:	00000073          	ecall
    800000c8:	80000297          	auipc	t0,0x80000
    800000cc:	f3828293          	addi	t0,t0,-200 # 0 <_start-0x80000000>
    800000d0:	00028e63          	beqz	t0,800000ec <reset_vector+0xa0>
    800000d4:	10529073          	csrw	stvec,t0
    800000d8:	0000b2b7          	lui	t0,0xb
    800000dc:	1092829b          	addiw	t0,t0,265
    800000e0:	30229073          	csrw	medeleg,t0
    800000e4:	30202373          	csrr	t1,medeleg
    800000e8:	f4629ae3          	bne	t0,t1,8000003c <handle_exception>
    800000ec:	30005073          	csrwi	mstatus,0
    800000f0:	00000297          	auipc	t0,0x0
    800000f4:	01428293          	addi	t0,t0,20 # 80000104 <test_2>
    800000f8:	34129073          	csrw	mepc,t0
    800000fc:	f1402573          	csrr	a0,mhartid
    80000100:	30200073          	mret

0000000080000104 <test_2>:
    80000104:	00000093          	li	ra,0
    80000108:	00000113          	li	sp,0
    8000010c:	00208f3b          	addw	t5,ra,sp
    80000110:	00000e93          	li	t4,0
    80000114:	00200193          	li	gp,2
    80000118:	4ddf1663          	bne	t5,t4,800005e4 <fail>

000000008000011c <test_3>:
    8000011c:	00100093          	li	ra,1
    80000120:	00100113          	li	sp,1
    80000124:	00208f3b          	addw	t5,ra,sp
    80000128:	00200e93          	li	t4,2
    8000012c:	00300193          	li	gp,3
    80000130:	4bdf1a63          	bne	t5,t4,800005e4 <fail>

0000000080000134 <test_4>:
    80000134:	00300093          	li	ra,3
    80000138:	00700113          	li	sp,7
    8000013c:	00208f3b          	addw	t5,ra,sp
    80000140:	00a00e93          	li	t4,10
    80000144:	00400193          	li	gp,4
    80000148:	49df1e63          	bne	t5,t4,800005e4 <fail>

000000008000014c <test_5>:
    8000014c:	00000093          	li	ra,0
    80000150:	ffff8137          	lui	sp,0xffff8
    80000154:	00208f3b          	addw	t5,ra,sp
    80000158:	ffff8eb7          	lui	t4,0xffff8
    8000015c:	00500193          	li	gp,5
    80000160:	49df1263          	bne	t5,t4,800005e4 <fail>

0000000080000164 <test_6>:
    80000164:	800000b7          	lui	ra,0x80000
    80000168:	00000113          	li	sp,0
    8000016c:	00208f3b          	addw	t5,ra,sp
    80000170:	80000eb7          	lui	t4,0x80000
    80000174:	00600193          	li	gp,6
    80000178:	47df1663          	bne	t5,t4,800005e4 <fail>

000000008000017c <test_7>:
    8000017c:	800000b7          	lui	ra,0x80000
    80000180:	ffff8137          	lui	sp,0xffff8
    80000184:	00208f3b          	addw	t5,ra,sp
    80000188:	7fff8eb7          	lui	t4,0x7fff8
    8000018c:	00700193          	li	gp,7
    80000190:	45df1a63          	bne	t5,t4,800005e4 <fail>

0000000080000194 <test_8>:
    80000194:	00000093          	li	ra,0
    80000198:	00008137          	lui	sp,0x8
    8000019c:	fff1011b          	addiw	sp,sp,-1
    800001a0:	00208f3b          	addw	t5,ra,sp
    800001a4:	00008eb7          	lui	t4,0x8
    800001a8:	fffe8e9b          	addiw	t4,t4,-1
    800001ac:	00800193          	li	gp,8
    800001b0:	43df1a63          	bne	t5,t4,800005e4 <fail>

00000000800001b4 <test_9>:
    800001b4:	800000b7          	lui	ra,0x80000
    800001b8:	fff0809b          	addiw	ra,ra,-1
    800001bc:	00000113          	li	sp,0
    800001c0:	00208f3b          	addw	t5,ra,sp
    800001c4:	80000eb7          	lui	t4,0x80000
    800001c8:	fffe8e9b          	addiw	t4,t4,-1
    800001cc:	00900193          	li	gp,9
    800001d0:	41df1a63          	bne	t5,t4,800005e4 <fail>

00000000800001d4 <test_10>:
    800001d4:	800000b7          	lui	ra,0x80000
    800001d8:	fff0809b          	addiw	ra,ra,-1
    800001dc:	00008137          	lui	sp,0x8
    800001e0:	fff1011b          	addiw	sp,sp,-1
    800001e4:	00208f3b          	addw	t5,ra,sp
    800001e8:	80008eb7          	lui	t4,0x80008
    800001ec:	ffee8e9b          	addiw	t4,t4,-2
    800001f0:	00a00193          	li	gp,10
    800001f4:	3fdf1863          	bne	t5,t4,800005e4 <fail>

00000000800001f8 <test_11>:
    800001f8:	800000b7          	lui	ra,0x80000
    800001fc:	00008137          	lui	sp,0x8
    80000200:	fff1011b          	addiw	sp,sp,-1
    80000204:	00208f3b          	addw	t5,ra,sp
    80000208:	80008eb7          	lui	t4,0x80008
    8000020c:	fffe8e9b          	addiw	t4,t4,-1
    80000210:	00b00193          	li	gp,11
    80000214:	3ddf1863          	bne	t5,t4,800005e4 <fail>

0000000080000218 <test_12>:
    80000218:	800000b7          	lui	ra,0x80000
    8000021c:	fff0809b          	addiw	ra,ra,-1
    80000220:	ffff8137          	lui	sp,0xffff8
    80000224:	00208f3b          	addw	t5,ra,sp
    80000228:	7fff8eb7          	lui	t4,0x7fff8
    8000022c:	fffe8e9b          	addiw	t4,t4,-1
    80000230:	00c00193          	li	gp,12
    80000234:	3bdf1863          	bne	t5,t4,800005e4 <fail>

0000000080000238 <test_13>:
    80000238:	00000093          	li	ra,0
    8000023c:	fff00113          	li	sp,-1
    80000240:	00208f3b          	addw	t5,ra,sp
    80000244:	fff00e93          	li	t4,-1
    80000248:	00d00193          	li	gp,13
    8000024c:	39df1c63          	bne	t5,t4,800005e4 <fail>

0000000080000250 <test_14>:
    80000250:	fff00093          	li	ra,-1
    80000254:	00100113          	li	sp,1
    80000258:	00208f3b          	addw	t5,ra,sp
    8000025c:	00000e93          	li	t4,0
    80000260:	00e00193          	li	gp,14
    80000264:	39df1063          	bne	t5,t4,800005e4 <fail>

0000000080000268 <test_15>:
    80000268:	fff00093          	li	ra,-1
    8000026c:	fff00113          	li	sp,-1
    80000270:	00208f3b          	addw	t5,ra,sp
    80000274:	ffe00e93          	li	t4,-2
    80000278:	00f00193          	li	gp,15
    8000027c:	37df1463          	bne	t5,t4,800005e4 <fail>

0000000080000280 <test_16>:
    80000280:	00100093          	li	ra,1
    80000284:	80000137          	lui	sp,0x80000
    80000288:	fff1011b          	addiw	sp,sp,-1
    8000028c:	00208f3b          	addw	t5,ra,sp
    80000290:	80000eb7          	lui	t4,0x80000
    80000294:	01000193          	li	gp,16
    80000298:	35df1663          	bne	t5,t4,800005e4 <fail>

000000008000029c <test_17>:
    8000029c:	00d00093          	li	ra,13
    800002a0:	00b00113          	li	sp,11
    800002a4:	002080bb          	addw	ra,ra,sp
    800002a8:	01800e93          	li	t4,24
    800002ac:	01100193          	li	gp,17
    800002b0:	33d09a63          	bne	ra,t4,800005e4 <fail>

00000000800002b4 <test_18>:
    800002b4:	00e00093          	li	ra,14
    800002b8:	00b00113          	li	sp,11
    800002bc:	0020813b          	addw	sp,ra,sp
    800002c0:	01900e93          	li	t4,25
    800002c4:	01200193          	li	gp,18
    800002c8:	31d11e63          	bne	sp,t4,800005e4 <fail>

00000000800002cc <test_19>:
    800002cc:	00d00093          	li	ra,13
    800002d0:	001080bb          	addw	ra,ra,ra
    800002d4:	01a00e93          	li	t4,26
    800002d8:	01300193          	li	gp,19
    800002dc:	31d09463          	bne	ra,t4,800005e4 <fail>

00000000800002e0 <test_20>:
    800002e0:	00000213          	li	tp,0
    800002e4:	00d00093          	li	ra,13
    800002e8:	00b00113          	li	sp,11
    800002ec:	00208f3b          	addw	t5,ra,sp
    800002f0:	000f0313          	mv	t1,t5
    800002f4:	00120213          	addi	tp,tp,1 # 1 <_start-0x7fffffff>
    800002f8:	00200293          	li	t0,2
    800002fc:	fe5214e3          	bne	tp,t0,800002e4 <test_20+0x4>
    80000300:	01800e93          	li	t4,24
    80000304:	01400193          	li	gp,20
    80000308:	2dd31e63          	bne	t1,t4,800005e4 <fail>

000000008000030c <test_21>:
    8000030c:	00000213          	li	tp,0
    80000310:	00e00093          	li	ra,14
    80000314:	00b00113          	li	sp,11
    80000318:	00208f3b          	addw	t5,ra,sp
    8000031c:	00000013          	nop
    80000320:	000f0313          	mv	t1,t5
    80000324:	00120213          	addi	tp,tp,1 # 1 <_start-0x7fffffff>
    80000328:	00200293          	li	t0,2
    8000032c:	fe5212e3          	bne	tp,t0,80000310 <test_21+0x4>
    80000330:	01900e93          	li	t4,25
    80000334:	01500193          	li	gp,21
    80000338:	2bd31663          	bne	t1,t4,800005e4 <fail>

000000008000033c <test_22>:
    8000033c:	00000213          	li	tp,0
    80000340:	00f00093          	li	ra,15
    80000344:	00b00113          	li	sp,11
    80000348:	00208f3b          	addw	t5,ra,sp
    8000034c:	00000013          	nop
    80000350:	00000013          	nop
    80000354:	000f0313          	mv	t1,t5
    80000358:	00120213          	addi	tp,tp,1 # 1 <_start-0x7fffffff>
    8000035c:	00200293          	li	t0,2
    80000360:	fe5210e3          	bne	tp,t0,80000340 <test_22+0x4>
    80000364:	01a00e93          	li	t4,26
    80000368:	01600193          	li	gp,22
    8000036c:	27d31c63          	bne	t1,t4,800005e4 <fail>

0000000080000370 <test_23>:
    80000370:	00000213          	li	tp,0
    80000374:	00d00093          	li	ra,13
    80000378:	00b00113          	li	sp,11
    8000037c:	00208f3b          	addw	t5,ra,sp
    80000380:	00120213          	addi	tp,tp,1 # 1 <_start-0x7fffffff>
    80000384:	00200293          	li	t0,2
    80000388:	fe5216e3          	bne	tp,t0,80000374 <test_23+0x4>
    8000038c:	01800e93          	li	t4,24
    80000390:	01700193          	li	gp,23
    80000394:	25df1863          	bne	t5,t4,800005e4 <fail>

0000000080000398 <test_24>:
    80000398:	00000213          	li	tp,0
    8000039c:	00e00093          	li	ra,14
    800003a0:	00b00113          	li	sp,11
    800003a4:	00000013          	nop
    800003a8:	00208f3b          	addw	t5,ra,sp
    800003ac:	00120213          	addi	tp,tp,1 # 1 <_start-0x7fffffff>
    800003b0:	00200293          	li	t0,2
    800003b4:	fe5214e3          	bne	tp,t0,8000039c <test_24+0x4>
    800003b8:	01900e93          	li	t4,25
    800003bc:	01800193          	li	gp,24
    800003c0:	23df1263          	bne	t5,t4,800005e4 <fail>

00000000800003c4 <test_25>:
    800003c4:	00000213          	li	tp,0
    800003c8:	00f00093          	li	ra,15
    800003cc:	00b00113          	li	sp,11
    800003d0:	00000013          	nop
    800003d4:	00000013          	nop
    800003d8:	00208f3b          	addw	t5,ra,sp
    800003dc:	00120213          	addi	tp,tp,1 # 1 <_start-0x7fffffff>
    800003e0:	00200293          	li	t0,2
    800003e4:	fe5212e3          	bne	tp,t0,800003c8 <test_25+0x4>
    800003e8:	01a00e93          	li	t4,26
    800003ec:	01900193          	li	gp,25
    800003f0:	1fdf1a63          	bne	t5,t4,800005e4 <fail>

00000000800003f4 <test_26>:
    800003f4:	00000213          	li	tp,0
    800003f8:	00d00093          	li	ra,13
    800003fc:	00000013          	nop
    80000400:	00b00113          	li	sp,11
    80000404:	00208f3b          	addw	t5,ra,sp
    80000408:	00120213          	addi	tp,tp,1 # 1 <_start-0x7fffffff>
    8000040c:	00200293          	li	t0,2
    80000410:	fe5214e3          	bne	tp,t0,800003f8 <test_26+0x4>
    80000414:	01800e93          	li	t4,24
    80000418:	01a00193          	li	gp,26
    8000041c:	1ddf1463          	bne	t5,t4,800005e4 <fail>

0000000080000420 <test_27>:
    80000420:	00000213          	li	tp,0
    80000424:	00e00093          	li	ra,14
    80000428:	00000013          	nop
    8000042c:	00b00113          	li	sp,11
    80000430:	00000013          	nop
    80000434:	00208f3b          	addw	t5,ra,sp
    80000438:	00120213          	addi	tp,tp,1 # 1 <_start-0x7fffffff>
    8000043c:	00200293          	li	t0,2
    80000440:	fe5212e3          	bne	tp,t0,80000424 <test_27+0x4>
    80000444:	01900e93          	li	t4,25
    80000448:	01b00193          	li	gp,27
    8000044c:	19df1c63          	bne	t5,t4,800005e4 <fail>

0000000080000450 <test_28>:
    80000450:	00000213          	li	tp,0
    80000454:	00f00093          	li	ra,15
    80000458:	00000013          	nop
    8000045c:	00000013          	nop
    80000460:	00b00113          	li	sp,11
    80000464:	00208f3b          	addw	t5,ra,sp
    80000468:	00120213          	addi	tp,tp,1 # 1 <_start-0x7fffffff>
    8000046c:	00200293          	li	t0,2
    80000470:	fe5212e3          	bne	tp,t0,80000454 <test_28+0x4>
    80000474:	01a00e93          	li	t4,26
    80000478:	01c00193          	li	gp,28
    8000047c:	17df1463          	bne	t5,t4,800005e4 <fail>

0000000080000480 <test_29>:
    80000480:	00000213          	li	tp,0
    80000484:	00b00113          	li	sp,11
    80000488:	00d00093          	li	ra,13
    8000048c:	00208f3b          	addw	t5,ra,sp
    80000490:	00120213          	addi	tp,tp,1 # 1 <_start-0x7fffffff>
    80000494:	00200293          	li	t0,2
    80000498:	fe5216e3          	bne	tp,t0,80000484 <test_29+0x4>
    8000049c:	01800e93          	li	t4,24
    800004a0:	01d00193          	li	gp,29
    800004a4:	15df1063          	bne	t5,t4,800005e4 <fail>

00000000800004a8 <test_30>:
    800004a8:	00000213          	li	tp,0
    800004ac:	00b00113          	li	sp,11
    800004b0:	00e00093          	li	ra,14
    800004b4:	00000013          	nop
    800004b8:	00208f3b          	addw	t5,ra,sp
    800004bc:	00120213          	addi	tp,tp,1 # 1 <_start-0x7fffffff>
    800004c0:	00200293          	li	t0,2
    800004c4:	fe5214e3          	bne	tp,t0,800004ac <test_30+0x4>
    800004c8:	01900e93          	li	t4,25
    800004cc:	01e00193          	li	gp,30
    800004d0:	11df1a63          	bne	t5,t4,800005e4 <fail>

00000000800004d4 <test_31>:
    800004d4:	00000213          	li	tp,0
    800004d8:	00b00113          	li	sp,11
    800004dc:	00f00093          	li	ra,15
    800004e0:	00000013          	nop
    800004e4:	00000013          	nop
    800004e8:	00208f3b          	addw	t5,ra,sp
    800004ec:	00120213          	addi	tp,tp,1 # 1 <_start-0x7fffffff>
    800004f0:	00200293          	li	t0,2
    800004f4:	fe5212e3          	bne	tp,t0,800004d8 <test_31+0x4>
    800004f8:	01a00e93          	li	t4,26
    800004fc:	01f00193          	li	gp,31
    80000500:	0fdf1263          	bne	t5,t4,800005e4 <fail>

0000000080000504 <test_32>:
    80000504:	00000213          	li	tp,0
    80000508:	00b00113          	li	sp,11
    8000050c:	00000013          	nop
    80000510:	00d00093          	li	ra,13
    80000514:	00208f3b          	addw	t5,ra,sp
    80000518:	00120213          	addi	tp,tp,1 # 1 <_start-0x7fffffff>
    8000051c:	00200293          	li	t0,2
    80000520:	fe5214e3          	bne	tp,t0,80000508 <test_32+0x4>
    80000524:	01800e93          	li	t4,24
    80000528:	02000193          	li	gp,32
    8000052c:	0bdf1c63          	bne	t5,t4,800005e4 <fail>

0000000080000530 <test_33>:
    80000530:	00000213          	li	tp,0
    80000534:	00b00113          	li	sp,11
    80000538:	00000013          	nop
    8000053c:	00e00093          	li	ra,14
    80000540:	00000013          	nop
    80000544:	00208f3b          	addw	t5,ra,sp
    80000548:	00120213          	addi	tp,tp,1 # 1 <_start-0x7fffffff>
    8000054c:	00200293          	li	t0,2
    80000550:	fe5212e3          	bne	tp,t0,80000534 <test_33+0x4>
    80000554:	01900e93          	li	t4,25
    80000558:	02100193          	li	gp,33
    8000055c:	09df1463          	bne	t5,t4,800005e4 <fail>

0000000080000560 <test_34>:
    80000560:	00000213          	li	tp,0
    80000564:	00b00113          	li	sp,11
    80000568:	00000013          	nop
    8000056c:	00000013          	nop
    80000570:	00f00093          	li	ra,15
    80000574:	00208f3b          	addw	t5,ra,sp
    80000578:	00120213          	addi	tp,tp,1 # 1 <_start-0x7fffffff>
    8000057c:	00200293          	li	t0,2
    80000580:	fe5212e3          	bne	tp,t0,80000564 <test_34+0x4>
    80000584:	01a00e93          	li	t4,26
    80000588:	02200193          	li	gp,34
    8000058c:	05df1c63          	bne	t5,t4,800005e4 <fail>

0000000080000590 <test_35>:
    80000590:	00f00093          	li	ra,15
    80000594:	0010013b          	addw	sp,zero,ra
    80000598:	00f00e93          	li	t4,15
    8000059c:	02300193          	li	gp,35
    800005a0:	05d11263          	bne	sp,t4,800005e4 <fail>

00000000800005a4 <test_36>:
    800005a4:	02000093          	li	ra,32
    800005a8:	0000813b          	addw	sp,ra,zero
    800005ac:	02000e93          	li	t4,32
    800005b0:	02400193          	li	gp,36
    800005b4:	03d11863          	bne	sp,t4,800005e4 <fail>

00000000800005b8 <test_37>:
    800005b8:	000000bb          	addw	ra,zero,zero
    800005bc:	00000e93          	li	t4,0
    800005c0:	02500193          	li	gp,37
    800005c4:	03d09063          	bne	ra,t4,800005e4 <fail>

00000000800005c8 <test_38>:
    800005c8:	01000093          	li	ra,16
    800005cc:	01e00113          	li	sp,30
    800005d0:	0020803b          	addw	zero,ra,sp
    800005d4:	00000e93          	li	t4,0
    800005d8:	02600193          	li	gp,38
    800005dc:	01d01463          	bne	zero,t4,800005e4 <fail>
    800005e0:	00301c63          	bne	zero,gp,800005f8 <pass>

00000000800005e4 <fail>:
    800005e4:	0ff0000f          	fence
    800005e8:	00018063          	beqz	gp,800005e8 <fail+0x4>
    800005ec:	00119193          	slli	gp,gp,0x1
    800005f0:	0011e193          	ori	gp,gp,1
    800005f4:	00000073          	ecall

00000000800005f8 <pass>:
    800005f8:	0ff0000f          	fence
    800005fc:	00100193          	li	gp,1
    80000600:	00000073          	ecall
    80000604:	c0001073          	unimp
    80000608:	0000                	unimp
    8000060a:	0000                	unimp
    8000060c:	0000                	unimp
    8000060e:	0000                	unimp
    80000610:	0000                	unimp
    80000612:	0000                	unimp
    80000614:	0000                	unimp
    80000616:	0000                	unimp
    80000618:	0000                	unimp
    8000061a:	0000                	unimp
    8000061c:	0000                	unimp
    8000061e:	0000                	unimp
    80000620:	0000                	unimp
    80000622:	0000                	unimp
    80000624:	0000                	unimp
    80000626:	0000                	unimp
    80000628:	0000                	unimp
    8000062a:	0000                	unimp
    8000062c:	0000                	unimp
    8000062e:	0000                	unimp
    80000630:	0000                	unimp
    80000632:	0000                	unimp
    80000634:	0000                	unimp
    80000636:	0000                	unimp
    80000638:	0000                	unimp
    8000063a:	0000                	unimp
    8000063c:	0000                	unimp
    8000063e:	0000                	unimp
    80000640:	0000                	unimp
    80000642:	0000                	unimp
