
rv64ui-p-sra:     file format elf64-littleriscv


Disassembly of section .text.init:

0000000080000000 <_start>:
    80000000:	04c0006f          	j	8000004c <reset_vector>

0000000080000004 <trap_vector>:
    80000004:	34202f73          	csrr	t5,mcause
    80000008:	00800f93          	li	t6,8
    8000000c:	03ff0a63          	beq	t5,t6,80000040 <write_tohost>
    80000010:	00900f93          	li	t6,9
    80000014:	03ff0663          	beq	t5,t6,80000040 <write_tohost>
    80000018:	00b00f93          	li	t6,11
    8000001c:	03ff0263          	beq	t5,t6,80000040 <write_tohost>
    80000020:	80000f17          	auipc	t5,0x80000
    80000024:	fe0f0f13          	addi	t5,t5,-32 # 0 <_start-0x80000000>
    80000028:	000f0463          	beqz	t5,80000030 <trap_vector+0x2c>
    8000002c:	000f0067          	jr	t5
    80000030:	34202f73          	csrr	t5,mcause
    80000034:	000f5463          	bgez	t5,8000003c <handle_exception>
    80000038:	0040006f          	j	8000003c <handle_exception>

000000008000003c <handle_exception>:
    8000003c:	5391e193          	ori	gp,gp,1337

0000000080000040 <write_tohost>:
    80000040:	00001f17          	auipc	t5,0x1
    80000044:	fc3f2023          	sw	gp,-64(t5) # 80001000 <tohost>
    80000048:	ff9ff06f          	j	80000040 <write_tohost>

000000008000004c <reset_vector>:
    8000004c:	f1402573          	csrr	a0,mhartid
    80000050:	00051063          	bnez	a0,80000050 <reset_vector+0x4>
    80000054:	00000297          	auipc	t0,0x0
    80000058:	01028293          	addi	t0,t0,16 # 80000064 <reset_vector+0x18>
    8000005c:	30529073          	csrw	mtvec,t0
    80000060:	18005073          	csrwi	satp,0
    80000064:	00000297          	auipc	t0,0x0
    80000068:	02428293          	addi	t0,t0,36 # 80000088 <reset_vector+0x3c>
    8000006c:	30529073          	csrw	mtvec,t0
    80000070:	0010029b          	addiw	t0,zero,1
    80000074:	03529293          	slli	t0,t0,0x35
    80000078:	fff28293          	addi	t0,t0,-1
    8000007c:	3b029073          	csrw	pmpaddr0,t0
    80000080:	01f00293          	li	t0,31
    80000084:	3a029073          	csrw	pmpcfg0,t0
    80000088:	00000297          	auipc	t0,0x0
    8000008c:	01828293          	addi	t0,t0,24 # 800000a0 <reset_vector+0x54>
    80000090:	30529073          	csrw	mtvec,t0
    80000094:	30205073          	csrwi	medeleg,0
    80000098:	30305073          	csrwi	mideleg,0
    8000009c:	30405073          	csrwi	mie,0
    800000a0:	00000193          	li	gp,0
    800000a4:	00000297          	auipc	t0,0x0
    800000a8:	f6028293          	addi	t0,t0,-160 # 80000004 <trap_vector>
    800000ac:	30529073          	csrw	mtvec,t0
    800000b0:	00100513          	li	a0,1
    800000b4:	01f51513          	slli	a0,a0,0x1f
    800000b8:	00055863          	bgez	a0,800000c8 <reset_vector+0x7c>
    800000bc:	0ff0000f          	fence
    800000c0:	00100193          	li	gp,1
    800000c4:	00000073          	ecall
    800000c8:	80000297          	auipc	t0,0x80000
    800000cc:	f3828293          	addi	t0,t0,-200 # 0 <_start-0x80000000>
    800000d0:	00028e63          	beqz	t0,800000ec <reset_vector+0xa0>
    800000d4:	10529073          	csrw	stvec,t0
    800000d8:	0000b2b7          	lui	t0,0xb
    800000dc:	1092829b          	addiw	t0,t0,265
    800000e0:	30229073          	csrw	medeleg,t0
    800000e4:	30202373          	csrr	t1,medeleg
    800000e8:	f4629ae3          	bne	t0,t1,8000003c <handle_exception>
    800000ec:	30005073          	csrwi	mstatus,0
    800000f0:	00000297          	auipc	t0,0x0
    800000f4:	01428293          	addi	t0,t0,20 # 80000104 <test_2>
    800000f8:	34129073          	csrw	mepc,t0
    800000fc:	f1402573          	csrr	a0,mhartid
    80000100:	30200073          	mret

0000000080000104 <test_2>:
    80000104:	800000b7          	lui	ra,0x80000
    80000108:	00000113          	li	sp,0
    8000010c:	4020df33          	sra	t5,ra,sp
    80000110:	80000eb7          	lui	t4,0x80000
    80000114:	00200193          	li	gp,2
    80000118:	59df1463          	bne	t5,t4,800006a0 <fail>

000000008000011c <test_3>:
    8000011c:	800000b7          	lui	ra,0x80000
    80000120:	00100113          	li	sp,1
    80000124:	4020df33          	sra	t5,ra,sp
    80000128:	c0000eb7          	lui	t4,0xc0000
    8000012c:	00300193          	li	gp,3
    80000130:	57df1863          	bne	t5,t4,800006a0 <fail>

0000000080000134 <test_4>:
    80000134:	800000b7          	lui	ra,0x80000
    80000138:	00700113          	li	sp,7
    8000013c:	4020df33          	sra	t5,ra,sp
    80000140:	ff000eb7          	lui	t4,0xff000
    80000144:	00400193          	li	gp,4
    80000148:	55df1c63          	bne	t5,t4,800006a0 <fail>

000000008000014c <test_5>:
    8000014c:	800000b7          	lui	ra,0x80000
    80000150:	00e00113          	li	sp,14
    80000154:	4020df33          	sra	t5,ra,sp
    80000158:	fffe0eb7          	lui	t4,0xfffe0
    8000015c:	00500193          	li	gp,5
    80000160:	55df1063          	bne	t5,t4,800006a0 <fail>

0000000080000164 <test_6>:
    80000164:	800000b7          	lui	ra,0x80000
    80000168:	0010809b          	addiw	ra,ra,1
    8000016c:	01f00113          	li	sp,31
    80000170:	4020df33          	sra	t5,ra,sp
    80000174:	fff00e93          	li	t4,-1
    80000178:	00600193          	li	gp,6
    8000017c:	53df1263          	bne	t5,t4,800006a0 <fail>

0000000080000180 <test_7>:
    80000180:	800000b7          	lui	ra,0x80000
    80000184:	fff0809b          	addiw	ra,ra,-1
    80000188:	00000113          	li	sp,0
    8000018c:	4020df33          	sra	t5,ra,sp
    80000190:	80000eb7          	lui	t4,0x80000
    80000194:	fffe8e9b          	addiw	t4,t4,-1
    80000198:	00700193          	li	gp,7
    8000019c:	51df1263          	bne	t5,t4,800006a0 <fail>

00000000800001a0 <test_8>:
    800001a0:	800000b7          	lui	ra,0x80000
    800001a4:	fff0809b          	addiw	ra,ra,-1
    800001a8:	00100113          	li	sp,1
    800001ac:	4020df33          	sra	t5,ra,sp
    800001b0:	40000eb7          	lui	t4,0x40000
    800001b4:	fffe8e9b          	addiw	t4,t4,-1
    800001b8:	00800193          	li	gp,8
    800001bc:	4fdf1263          	bne	t5,t4,800006a0 <fail>

00000000800001c0 <test_9>:
    800001c0:	800000b7          	lui	ra,0x80000
    800001c4:	fff0809b          	addiw	ra,ra,-1
    800001c8:	00700113          	li	sp,7
    800001cc:	4020df33          	sra	t5,ra,sp
    800001d0:	01000eb7          	lui	t4,0x1000
    800001d4:	fffe8e9b          	addiw	t4,t4,-1
    800001d8:	00900193          	li	gp,9
    800001dc:	4ddf1263          	bne	t5,t4,800006a0 <fail>

00000000800001e0 <test_10>:
    800001e0:	800000b7          	lui	ra,0x80000
    800001e4:	fff0809b          	addiw	ra,ra,-1
    800001e8:	00e00113          	li	sp,14
    800001ec:	4020df33          	sra	t5,ra,sp
    800001f0:	00020eb7          	lui	t4,0x20
    800001f4:	fffe8e9b          	addiw	t4,t4,-1
    800001f8:	00a00193          	li	gp,10
    800001fc:	4bdf1263          	bne	t5,t4,800006a0 <fail>

0000000080000200 <test_11>:
    80000200:	800000b7          	lui	ra,0x80000
    80000204:	fff0809b          	addiw	ra,ra,-1
    80000208:	01f00113          	li	sp,31
    8000020c:	4020df33          	sra	t5,ra,sp
    80000210:	00000e93          	li	t4,0
    80000214:	00b00193          	li	gp,11
    80000218:	49df1463          	bne	t5,t4,800006a0 <fail>

000000008000021c <test_12>:
    8000021c:	818180b7          	lui	ra,0x81818
    80000220:	1810809b          	addiw	ra,ra,385
    80000224:	00000113          	li	sp,0
    80000228:	4020df33          	sra	t5,ra,sp
    8000022c:	81818eb7          	lui	t4,0x81818
    80000230:	181e8e9b          	addiw	t4,t4,385
    80000234:	00c00193          	li	gp,12
    80000238:	47df1463          	bne	t5,t4,800006a0 <fail>

000000008000023c <test_13>:
    8000023c:	818180b7          	lui	ra,0x81818
    80000240:	1810809b          	addiw	ra,ra,385
    80000244:	00100113          	li	sp,1
    80000248:	4020df33          	sra	t5,ra,sp
    8000024c:	c0c0ceb7          	lui	t4,0xc0c0c
    80000250:	0c0e8e9b          	addiw	t4,t4,192
    80000254:	00d00193          	li	gp,13
    80000258:	45df1463          	bne	t5,t4,800006a0 <fail>

000000008000025c <test_14>:
    8000025c:	818180b7          	lui	ra,0x81818
    80000260:	1810809b          	addiw	ra,ra,385
    80000264:	00700113          	li	sp,7
    80000268:	4020df33          	sra	t5,ra,sp
    8000026c:	ff030eb7          	lui	t4,0xff030
    80000270:	303e8e9b          	addiw	t4,t4,771
    80000274:	00e00193          	li	gp,14
    80000278:	43df1463          	bne	t5,t4,800006a0 <fail>

000000008000027c <test_15>:
    8000027c:	818180b7          	lui	ra,0x81818
    80000280:	1810809b          	addiw	ra,ra,385
    80000284:	00e00113          	li	sp,14
    80000288:	4020df33          	sra	t5,ra,sp
    8000028c:	fffe0eb7          	lui	t4,0xfffe0
    80000290:	606e8e9b          	addiw	t4,t4,1542
    80000294:	00f00193          	li	gp,15
    80000298:	41df1463          	bne	t5,t4,800006a0 <fail>

000000008000029c <test_16>:
    8000029c:	818180b7          	lui	ra,0x81818
    800002a0:	1810809b          	addiw	ra,ra,385
    800002a4:	01f00113          	li	sp,31
    800002a8:	4020df33          	sra	t5,ra,sp
    800002ac:	fff00e93          	li	t4,-1
    800002b0:	01000193          	li	gp,16
    800002b4:	3fdf1663          	bne	t5,t4,800006a0 <fail>

00000000800002b8 <test_17>:
    800002b8:	818180b7          	lui	ra,0x81818
    800002bc:	1810809b          	addiw	ra,ra,385
    800002c0:	fc000113          	li	sp,-64
    800002c4:	4020df33          	sra	t5,ra,sp
    800002c8:	81818eb7          	lui	t4,0x81818
    800002cc:	181e8e9b          	addiw	t4,t4,385
    800002d0:	01100193          	li	gp,17
    800002d4:	3ddf1663          	bne	t5,t4,800006a0 <fail>

00000000800002d8 <test_18>:
    800002d8:	818180b7          	lui	ra,0x81818
    800002dc:	1810809b          	addiw	ra,ra,385
    800002e0:	fc100113          	li	sp,-63
    800002e4:	4020df33          	sra	t5,ra,sp
    800002e8:	c0c0ceb7          	lui	t4,0xc0c0c
    800002ec:	0c0e8e9b          	addiw	t4,t4,192
    800002f0:	01200193          	li	gp,18
    800002f4:	3bdf1663          	bne	t5,t4,800006a0 <fail>

00000000800002f8 <test_19>:
    800002f8:	818180b7          	lui	ra,0x81818
    800002fc:	1810809b          	addiw	ra,ra,385
    80000300:	fc700113          	li	sp,-57
    80000304:	4020df33          	sra	t5,ra,sp
    80000308:	ff030eb7          	lui	t4,0xff030
    8000030c:	303e8e9b          	addiw	t4,t4,771
    80000310:	01300193          	li	gp,19
    80000314:	39df1663          	bne	t5,t4,800006a0 <fail>

0000000080000318 <test_20>:
    80000318:	818180b7          	lui	ra,0x81818
    8000031c:	1810809b          	addiw	ra,ra,385
    80000320:	fce00113          	li	sp,-50
    80000324:	4020df33          	sra	t5,ra,sp
    80000328:	fffe0eb7          	lui	t4,0xfffe0
    8000032c:	606e8e9b          	addiw	t4,t4,1542
    80000330:	01400193          	li	gp,20
    80000334:	37df1663          	bne	t5,t4,800006a0 <fail>

0000000080000338 <test_21>:
    80000338:	818180b7          	lui	ra,0x81818
    8000033c:	1810809b          	addiw	ra,ra,385
    80000340:	fff00113          	li	sp,-1
    80000344:	4020df33          	sra	t5,ra,sp
    80000348:	fff00e93          	li	t4,-1
    8000034c:	01500193          	li	gp,21
    80000350:	35df1863          	bne	t5,t4,800006a0 <fail>

0000000080000354 <test_22>:
    80000354:	800000b7          	lui	ra,0x80000
    80000358:	00700113          	li	sp,7
    8000035c:	4020d0b3          	sra	ra,ra,sp
    80000360:	ff000eb7          	lui	t4,0xff000
    80000364:	01600193          	li	gp,22
    80000368:	33d09c63          	bne	ra,t4,800006a0 <fail>

000000008000036c <test_23>:
    8000036c:	800000b7          	lui	ra,0x80000
    80000370:	00e00113          	li	sp,14
    80000374:	4020d133          	sra	sp,ra,sp
    80000378:	fffe0eb7          	lui	t4,0xfffe0
    8000037c:	01700193          	li	gp,23
    80000380:	33d11063          	bne	sp,t4,800006a0 <fail>

0000000080000384 <test_24>:
    80000384:	00700093          	li	ra,7
    80000388:	4010d0b3          	sra	ra,ra,ra
    8000038c:	00000e93          	li	t4,0
    80000390:	01800193          	li	gp,24
    80000394:	31d09663          	bne	ra,t4,800006a0 <fail>

0000000080000398 <test_25>:
    80000398:	00000213          	li	tp,0
    8000039c:	800000b7          	lui	ra,0x80000
    800003a0:	00700113          	li	sp,7
    800003a4:	4020df33          	sra	t5,ra,sp
    800003a8:	000f0313          	mv	t1,t5
    800003ac:	00120213          	addi	tp,tp,1 # 1 <_start-0x7fffffff>
    800003b0:	00200293          	li	t0,2
    800003b4:	fe5214e3          	bne	tp,t0,8000039c <test_25+0x4>
    800003b8:	ff000eb7          	lui	t4,0xff000
    800003bc:	01900193          	li	gp,25
    800003c0:	2fd31063          	bne	t1,t4,800006a0 <fail>

00000000800003c4 <test_26>:
    800003c4:	00000213          	li	tp,0
    800003c8:	800000b7          	lui	ra,0x80000
    800003cc:	00e00113          	li	sp,14
    800003d0:	4020df33          	sra	t5,ra,sp
    800003d4:	00000013          	nop
    800003d8:	000f0313          	mv	t1,t5
    800003dc:	00120213          	addi	tp,tp,1 # 1 <_start-0x7fffffff>
    800003e0:	00200293          	li	t0,2
    800003e4:	fe5212e3          	bne	tp,t0,800003c8 <test_26+0x4>
    800003e8:	fffe0eb7          	lui	t4,0xfffe0
    800003ec:	01a00193          	li	gp,26
    800003f0:	2bd31863          	bne	t1,t4,800006a0 <fail>

00000000800003f4 <test_27>:
    800003f4:	00000213          	li	tp,0
    800003f8:	800000b7          	lui	ra,0x80000
    800003fc:	01f00113          	li	sp,31
    80000400:	4020df33          	sra	t5,ra,sp
    80000404:	00000013          	nop
    80000408:	00000013          	nop
    8000040c:	000f0313          	mv	t1,t5
    80000410:	00120213          	addi	tp,tp,1 # 1 <_start-0x7fffffff>
    80000414:	00200293          	li	t0,2
    80000418:	fe5210e3          	bne	tp,t0,800003f8 <test_27+0x4>
    8000041c:	fff00e93          	li	t4,-1
    80000420:	01b00193          	li	gp,27
    80000424:	27d31e63          	bne	t1,t4,800006a0 <fail>

0000000080000428 <test_28>:
    80000428:	00000213          	li	tp,0
    8000042c:	800000b7          	lui	ra,0x80000
    80000430:	00700113          	li	sp,7
    80000434:	4020df33          	sra	t5,ra,sp
    80000438:	00120213          	addi	tp,tp,1 # 1 <_start-0x7fffffff>
    8000043c:	00200293          	li	t0,2
    80000440:	fe5216e3          	bne	tp,t0,8000042c <test_28+0x4>
    80000444:	ff000eb7          	lui	t4,0xff000
    80000448:	01c00193          	li	gp,28
    8000044c:	25df1a63          	bne	t5,t4,800006a0 <fail>

0000000080000450 <test_29>:
    80000450:	00000213          	li	tp,0
    80000454:	800000b7          	lui	ra,0x80000
    80000458:	00e00113          	li	sp,14
    8000045c:	00000013          	nop
    80000460:	4020df33          	sra	t5,ra,sp
    80000464:	00120213          	addi	tp,tp,1 # 1 <_start-0x7fffffff>
    80000468:	00200293          	li	t0,2
    8000046c:	fe5214e3          	bne	tp,t0,80000454 <test_29+0x4>
    80000470:	fffe0eb7          	lui	t4,0xfffe0
    80000474:	01d00193          	li	gp,29
    80000478:	23df1463          	bne	t5,t4,800006a0 <fail>

000000008000047c <test_30>:
    8000047c:	00000213          	li	tp,0
    80000480:	800000b7          	lui	ra,0x80000
    80000484:	01f00113          	li	sp,31
    80000488:	00000013          	nop
    8000048c:	00000013          	nop
    80000490:	4020df33          	sra	t5,ra,sp
    80000494:	00120213          	addi	tp,tp,1 # 1 <_start-0x7fffffff>
    80000498:	00200293          	li	t0,2
    8000049c:	fe5212e3          	bne	tp,t0,80000480 <test_30+0x4>
    800004a0:	fff00e93          	li	t4,-1
    800004a4:	01e00193          	li	gp,30
    800004a8:	1fdf1c63          	bne	t5,t4,800006a0 <fail>

00000000800004ac <test_31>:
    800004ac:	00000213          	li	tp,0
    800004b0:	800000b7          	lui	ra,0x80000
    800004b4:	00000013          	nop
    800004b8:	00700113          	li	sp,7
    800004bc:	4020df33          	sra	t5,ra,sp
    800004c0:	00120213          	addi	tp,tp,1 # 1 <_start-0x7fffffff>
    800004c4:	00200293          	li	t0,2
    800004c8:	fe5214e3          	bne	tp,t0,800004b0 <test_31+0x4>
    800004cc:	ff000eb7          	lui	t4,0xff000
    800004d0:	01f00193          	li	gp,31
    800004d4:	1ddf1663          	bne	t5,t4,800006a0 <fail>

00000000800004d8 <test_32>:
    800004d8:	00000213          	li	tp,0
    800004dc:	800000b7          	lui	ra,0x80000
    800004e0:	00000013          	nop
    800004e4:	00e00113          	li	sp,14
    800004e8:	00000013          	nop
    800004ec:	4020df33          	sra	t5,ra,sp
    800004f0:	00120213          	addi	tp,tp,1 # 1 <_start-0x7fffffff>
    800004f4:	00200293          	li	t0,2
    800004f8:	fe5212e3          	bne	tp,t0,800004dc <test_32+0x4>
    800004fc:	fffe0eb7          	lui	t4,0xfffe0
    80000500:	02000193          	li	gp,32
    80000504:	19df1e63          	bne	t5,t4,800006a0 <fail>

0000000080000508 <test_33>:
    80000508:	00000213          	li	tp,0
    8000050c:	800000b7          	lui	ra,0x80000
    80000510:	00000013          	nop
    80000514:	00000013          	nop
    80000518:	01f00113          	li	sp,31
    8000051c:	4020df33          	sra	t5,ra,sp
    80000520:	00120213          	addi	tp,tp,1 # 1 <_start-0x7fffffff>
    80000524:	00200293          	li	t0,2
    80000528:	fe5212e3          	bne	tp,t0,8000050c <test_33+0x4>
    8000052c:	fff00e93          	li	t4,-1
    80000530:	02100193          	li	gp,33
    80000534:	17df1663          	bne	t5,t4,800006a0 <fail>

0000000080000538 <test_34>:
    80000538:	00000213          	li	tp,0
    8000053c:	00700113          	li	sp,7
    80000540:	800000b7          	lui	ra,0x80000
    80000544:	4020df33          	sra	t5,ra,sp
    80000548:	00120213          	addi	tp,tp,1 # 1 <_start-0x7fffffff>
    8000054c:	00200293          	li	t0,2
    80000550:	fe5216e3          	bne	tp,t0,8000053c <test_34+0x4>
    80000554:	ff000eb7          	lui	t4,0xff000
    80000558:	02200193          	li	gp,34
    8000055c:	15df1263          	bne	t5,t4,800006a0 <fail>

0000000080000560 <test_35>:
    80000560:	00000213          	li	tp,0
    80000564:	00e00113          	li	sp,14
    80000568:	800000b7          	lui	ra,0x80000
    8000056c:	00000013          	nop
    80000570:	4020df33          	sra	t5,ra,sp
    80000574:	00120213          	addi	tp,tp,1 # 1 <_start-0x7fffffff>
    80000578:	00200293          	li	t0,2
    8000057c:	fe5214e3          	bne	tp,t0,80000564 <test_35+0x4>
    80000580:	fffe0eb7          	lui	t4,0xfffe0
    80000584:	02300193          	li	gp,35
    80000588:	11df1c63          	bne	t5,t4,800006a0 <fail>

000000008000058c <test_36>:
    8000058c:	00000213          	li	tp,0
    80000590:	01f00113          	li	sp,31
    80000594:	800000b7          	lui	ra,0x80000
    80000598:	00000013          	nop
    8000059c:	00000013          	nop
    800005a0:	4020df33          	sra	t5,ra,sp
    800005a4:	00120213          	addi	tp,tp,1 # 1 <_start-0x7fffffff>
    800005a8:	00200293          	li	t0,2
    800005ac:	fe5212e3          	bne	tp,t0,80000590 <test_36+0x4>
    800005b0:	fff00e93          	li	t4,-1
    800005b4:	02400193          	li	gp,36
    800005b8:	0fdf1463          	bne	t5,t4,800006a0 <fail>

00000000800005bc <test_37>:
    800005bc:	00000213          	li	tp,0
    800005c0:	00700113          	li	sp,7
    800005c4:	00000013          	nop
    800005c8:	800000b7          	lui	ra,0x80000
    800005cc:	4020df33          	sra	t5,ra,sp
    800005d0:	00120213          	addi	tp,tp,1 # 1 <_start-0x7fffffff>
    800005d4:	00200293          	li	t0,2
    800005d8:	fe5214e3          	bne	tp,t0,800005c0 <test_37+0x4>
    800005dc:	ff000eb7          	lui	t4,0xff000
    800005e0:	02500193          	li	gp,37
    800005e4:	0bdf1e63          	bne	t5,t4,800006a0 <fail>

00000000800005e8 <test_38>:
    800005e8:	00000213          	li	tp,0
    800005ec:	00e00113          	li	sp,14
    800005f0:	00000013          	nop
    800005f4:	800000b7          	lui	ra,0x80000
    800005f8:	00000013          	nop
    800005fc:	4020df33          	sra	t5,ra,sp
    80000600:	00120213          	addi	tp,tp,1 # 1 <_start-0x7fffffff>
    80000604:	00200293          	li	t0,2
    80000608:	fe5212e3          	bne	tp,t0,800005ec <test_38+0x4>
    8000060c:	fffe0eb7          	lui	t4,0xfffe0
    80000610:	02600193          	li	gp,38
    80000614:	09df1663          	bne	t5,t4,800006a0 <fail>

0000000080000618 <test_39>:
    80000618:	00000213          	li	tp,0
    8000061c:	01f00113          	li	sp,31
    80000620:	00000013          	nop
    80000624:	00000013          	nop
    80000628:	800000b7          	lui	ra,0x80000
    8000062c:	4020df33          	sra	t5,ra,sp
    80000630:	00120213          	addi	tp,tp,1 # 1 <_start-0x7fffffff>
    80000634:	00200293          	li	t0,2
    80000638:	fe5212e3          	bne	tp,t0,8000061c <test_39+0x4>
    8000063c:	fff00e93          	li	t4,-1
    80000640:	02700193          	li	gp,39
    80000644:	05df1e63          	bne	t5,t4,800006a0 <fail>

0000000080000648 <test_40>:
    80000648:	00f00093          	li	ra,15
    8000064c:	40105133          	sra	sp,zero,ra
    80000650:	00000e93          	li	t4,0
    80000654:	02800193          	li	gp,40
    80000658:	05d11463          	bne	sp,t4,800006a0 <fail>

000000008000065c <test_41>:
    8000065c:	02000093          	li	ra,32
    80000660:	4000d133          	sra	sp,ra,zero
    80000664:	02000e93          	li	t4,32
    80000668:	02900193          	li	gp,41
    8000066c:	03d11a63          	bne	sp,t4,800006a0 <fail>

0000000080000670 <test_42>:
    80000670:	400050b3          	sra	ra,zero,zero
    80000674:	00000e93          	li	t4,0
    80000678:	02a00193          	li	gp,42
    8000067c:	03d09263          	bne	ra,t4,800006a0 <fail>

0000000080000680 <test_43>:
    80000680:	40000093          	li	ra,1024
    80000684:	00001137          	lui	sp,0x1
    80000688:	8001011b          	addiw	sp,sp,-2048
    8000068c:	4020d033          	sra	zero,ra,sp
    80000690:	00000e93          	li	t4,0
    80000694:	02b00193          	li	gp,43
    80000698:	01d01463          	bne	zero,t4,800006a0 <fail>
    8000069c:	00301c63          	bne	zero,gp,800006b4 <pass>

00000000800006a0 <fail>:
    800006a0:	0ff0000f          	fence
    800006a4:	00018063          	beqz	gp,800006a4 <fail+0x4>
    800006a8:	00119193          	slli	gp,gp,0x1
    800006ac:	0011e193          	ori	gp,gp,1
    800006b0:	00000073          	ecall

00000000800006b4 <pass>:
    800006b4:	0ff0000f          	fence
    800006b8:	00100193          	li	gp,1
    800006bc:	00000073          	ecall
    800006c0:	c0001073          	unimp
