
rv64ui-p-sraw:     file format elf64-littleriscv


Disassembly of section .text.init:

0000000080000000 <_start>:
    80000000:	04c0006f          	j	8000004c <reset_vector>

0000000080000004 <trap_vector>:
    80000004:	34202f73          	csrr	t5,mcause
    80000008:	00800f93          	li	t6,8
    8000000c:	03ff0a63          	beq	t5,t6,80000040 <write_tohost>
    80000010:	00900f93          	li	t6,9
    80000014:	03ff0663          	beq	t5,t6,80000040 <write_tohost>
    80000018:	00b00f93          	li	t6,11
    8000001c:	03ff0263          	beq	t5,t6,80000040 <write_tohost>
    80000020:	80000f17          	auipc	t5,0x80000
    80000024:	fe0f0f13          	addi	t5,t5,-32 # 0 <_start-0x80000000>
    80000028:	000f0463          	beqz	t5,80000030 <trap_vector+0x2c>
    8000002c:	000f0067          	jr	t5
    80000030:	34202f73          	csrr	t5,mcause
    80000034:	000f5463          	bgez	t5,8000003c <handle_exception>
    80000038:	0040006f          	j	8000003c <handle_exception>

000000008000003c <handle_exception>:
    8000003c:	5391e193          	ori	gp,gp,1337

0000000080000040 <write_tohost>:
    80000040:	00001f17          	auipc	t5,0x1
    80000044:	fc3f2023          	sw	gp,-64(t5) # 80001000 <tohost>
    80000048:	ff9ff06f          	j	80000040 <write_tohost>

000000008000004c <reset_vector>:
    8000004c:	f1402573          	csrr	a0,mhartid
    80000050:	00051063          	bnez	a0,80000050 <reset_vector+0x4>
    80000054:	00000297          	auipc	t0,0x0
    80000058:	01028293          	addi	t0,t0,16 # 80000064 <reset_vector+0x18>
    8000005c:	30529073          	csrw	mtvec,t0
    80000060:	18005073          	csrwi	satp,0
    80000064:	00000297          	auipc	t0,0x0
    80000068:	02428293          	addi	t0,t0,36 # 80000088 <reset_vector+0x3c>
    8000006c:	30529073          	csrw	mtvec,t0
    80000070:	0010029b          	addiw	t0,zero,1
    80000074:	03529293          	slli	t0,t0,0x35
    80000078:	fff28293          	addi	t0,t0,-1
    8000007c:	3b029073          	csrw	pmpaddr0,t0
    80000080:	01f00293          	li	t0,31
    80000084:	3a029073          	csrw	pmpcfg0,t0
    80000088:	00000297          	auipc	t0,0x0
    8000008c:	01828293          	addi	t0,t0,24 # 800000a0 <reset_vector+0x54>
    80000090:	30529073          	csrw	mtvec,t0
    80000094:	30205073          	csrwi	medeleg,0
    80000098:	30305073          	csrwi	mideleg,0
    8000009c:	30405073          	csrwi	mie,0
    800000a0:	00000193          	li	gp,0
    800000a4:	00000297          	auipc	t0,0x0
    800000a8:	f6028293          	addi	t0,t0,-160 # 80000004 <trap_vector>
    800000ac:	30529073          	csrw	mtvec,t0
    800000b0:	00100513          	li	a0,1
    800000b4:	01f51513          	slli	a0,a0,0x1f
    800000b8:	00055863          	bgez	a0,800000c8 <reset_vector+0x7c>
    800000bc:	0ff0000f          	fence
    800000c0:	00100193          	li	gp,1
    800000c4:	00000073          	ecall
    800000c8:	80000297          	auipc	t0,0x80000
    800000cc:	f3828293          	addi	t0,t0,-200 # 0 <_start-0x80000000>
    800000d0:	00028e63          	beqz	t0,800000ec <reset_vector+0xa0>
    800000d4:	10529073          	csrw	stvec,t0
    800000d8:	0000b2b7          	lui	t0,0xb
    800000dc:	1092829b          	addiw	t0,t0,265
    800000e0:	30229073          	csrw	medeleg,t0
    800000e4:	30202373          	csrr	t1,medeleg
    800000e8:	f4629ae3          	bne	t0,t1,8000003c <handle_exception>
    800000ec:	30005073          	csrwi	mstatus,0
    800000f0:	00000297          	auipc	t0,0x0
    800000f4:	01428293          	addi	t0,t0,20 # 80000104 <test_2>
    800000f8:	34129073          	csrw	mepc,t0
    800000fc:	f1402573          	csrr	a0,mhartid
    80000100:	30200073          	mret

0000000080000104 <test_2>:
    80000104:	800000b7          	lui	ra,0x80000
    80000108:	00000113          	li	sp,0
    8000010c:	4020df3b          	sraw	t5,ra,sp
    80000110:	80000eb7          	lui	t4,0x80000
    80000114:	00200193          	li	gp,2
    80000118:	63df1463          	bne	t5,t4,80000740 <fail>

000000008000011c <test_3>:
    8000011c:	800000b7          	lui	ra,0x80000
    80000120:	00100113          	li	sp,1
    80000124:	4020df3b          	sraw	t5,ra,sp
    80000128:	c0000eb7          	lui	t4,0xc0000
    8000012c:	00300193          	li	gp,3
    80000130:	61df1863          	bne	t5,t4,80000740 <fail>

0000000080000134 <test_4>:
    80000134:	800000b7          	lui	ra,0x80000
    80000138:	00700113          	li	sp,7
    8000013c:	4020df3b          	sraw	t5,ra,sp
    80000140:	ff000eb7          	lui	t4,0xff000
    80000144:	00400193          	li	gp,4
    80000148:	5fdf1c63          	bne	t5,t4,80000740 <fail>

000000008000014c <test_5>:
    8000014c:	800000b7          	lui	ra,0x80000
    80000150:	00e00113          	li	sp,14
    80000154:	4020df3b          	sraw	t5,ra,sp
    80000158:	fffe0eb7          	lui	t4,0xfffe0
    8000015c:	00500193          	li	gp,5
    80000160:	5fdf1063          	bne	t5,t4,80000740 <fail>

0000000080000164 <test_6>:
    80000164:	800000b7          	lui	ra,0x80000
    80000168:	0010809b          	addiw	ra,ra,1
    8000016c:	01f00113          	li	sp,31
    80000170:	4020df3b          	sraw	t5,ra,sp
    80000174:	fff00e93          	li	t4,-1
    80000178:	00600193          	li	gp,6
    8000017c:	5ddf1263          	bne	t5,t4,80000740 <fail>

0000000080000180 <test_7>:
    80000180:	800000b7          	lui	ra,0x80000
    80000184:	fff0809b          	addiw	ra,ra,-1
    80000188:	00000113          	li	sp,0
    8000018c:	4020df3b          	sraw	t5,ra,sp
    80000190:	80000eb7          	lui	t4,0x80000
    80000194:	fffe8e9b          	addiw	t4,t4,-1
    80000198:	00700193          	li	gp,7
    8000019c:	5bdf1263          	bne	t5,t4,80000740 <fail>

00000000800001a0 <test_8>:
    800001a0:	800000b7          	lui	ra,0x80000
    800001a4:	fff0809b          	addiw	ra,ra,-1
    800001a8:	00100113          	li	sp,1
    800001ac:	4020df3b          	sraw	t5,ra,sp
    800001b0:	40000eb7          	lui	t4,0x40000
    800001b4:	fffe8e9b          	addiw	t4,t4,-1
    800001b8:	00800193          	li	gp,8
    800001bc:	59df1263          	bne	t5,t4,80000740 <fail>

00000000800001c0 <test_9>:
    800001c0:	800000b7          	lui	ra,0x80000
    800001c4:	fff0809b          	addiw	ra,ra,-1
    800001c8:	00700113          	li	sp,7
    800001cc:	4020df3b          	sraw	t5,ra,sp
    800001d0:	01000eb7          	lui	t4,0x1000
    800001d4:	fffe8e9b          	addiw	t4,t4,-1
    800001d8:	00900193          	li	gp,9
    800001dc:	57df1263          	bne	t5,t4,80000740 <fail>

00000000800001e0 <test_10>:
    800001e0:	800000b7          	lui	ra,0x80000
    800001e4:	fff0809b          	addiw	ra,ra,-1
    800001e8:	00e00113          	li	sp,14
    800001ec:	4020df3b          	sraw	t5,ra,sp
    800001f0:	00020eb7          	lui	t4,0x20
    800001f4:	fffe8e9b          	addiw	t4,t4,-1
    800001f8:	00a00193          	li	gp,10
    800001fc:	55df1263          	bne	t5,t4,80000740 <fail>

0000000080000200 <test_11>:
    80000200:	800000b7          	lui	ra,0x80000
    80000204:	fff0809b          	addiw	ra,ra,-1
    80000208:	01f00113          	li	sp,31
    8000020c:	4020df3b          	sraw	t5,ra,sp
    80000210:	00000e93          	li	t4,0
    80000214:	00b00193          	li	gp,11
    80000218:	53df1463          	bne	t5,t4,80000740 <fail>

000000008000021c <test_12>:
    8000021c:	818180b7          	lui	ra,0x81818
    80000220:	1810809b          	addiw	ra,ra,385
    80000224:	00000113          	li	sp,0
    80000228:	4020df3b          	sraw	t5,ra,sp
    8000022c:	81818eb7          	lui	t4,0x81818
    80000230:	181e8e9b          	addiw	t4,t4,385
    80000234:	00c00193          	li	gp,12
    80000238:	51df1463          	bne	t5,t4,80000740 <fail>

000000008000023c <test_13>:
    8000023c:	818180b7          	lui	ra,0x81818
    80000240:	1810809b          	addiw	ra,ra,385
    80000244:	00100113          	li	sp,1
    80000248:	4020df3b          	sraw	t5,ra,sp
    8000024c:	c0c0ceb7          	lui	t4,0xc0c0c
    80000250:	0c0e8e9b          	addiw	t4,t4,192
    80000254:	00d00193          	li	gp,13
    80000258:	4fdf1463          	bne	t5,t4,80000740 <fail>

000000008000025c <test_14>:
    8000025c:	818180b7          	lui	ra,0x81818
    80000260:	1810809b          	addiw	ra,ra,385
    80000264:	00700113          	li	sp,7
    80000268:	4020df3b          	sraw	t5,ra,sp
    8000026c:	ff030eb7          	lui	t4,0xff030
    80000270:	303e8e9b          	addiw	t4,t4,771
    80000274:	00e00193          	li	gp,14
    80000278:	4ddf1463          	bne	t5,t4,80000740 <fail>

000000008000027c <test_15>:
    8000027c:	818180b7          	lui	ra,0x81818
    80000280:	1810809b          	addiw	ra,ra,385
    80000284:	00e00113          	li	sp,14
    80000288:	4020df3b          	sraw	t5,ra,sp
    8000028c:	fffe0eb7          	lui	t4,0xfffe0
    80000290:	606e8e9b          	addiw	t4,t4,1542
    80000294:	00f00193          	li	gp,15
    80000298:	4bdf1463          	bne	t5,t4,80000740 <fail>

000000008000029c <test_16>:
    8000029c:	818180b7          	lui	ra,0x81818
    800002a0:	1810809b          	addiw	ra,ra,385
    800002a4:	01f00113          	li	sp,31
    800002a8:	4020df3b          	sraw	t5,ra,sp
    800002ac:	fff00e93          	li	t4,-1
    800002b0:	01000193          	li	gp,16
    800002b4:	49df1663          	bne	t5,t4,80000740 <fail>

00000000800002b8 <test_17>:
    800002b8:	818180b7          	lui	ra,0x81818
    800002bc:	1810809b          	addiw	ra,ra,385
    800002c0:	fe000113          	li	sp,-32
    800002c4:	4020df3b          	sraw	t5,ra,sp
    800002c8:	81818eb7          	lui	t4,0x81818
    800002cc:	181e8e9b          	addiw	t4,t4,385
    800002d0:	01100193          	li	gp,17
    800002d4:	47df1663          	bne	t5,t4,80000740 <fail>

00000000800002d8 <test_18>:
    800002d8:	818180b7          	lui	ra,0x81818
    800002dc:	1810809b          	addiw	ra,ra,385
    800002e0:	fe100113          	li	sp,-31
    800002e4:	4020df3b          	sraw	t5,ra,sp
    800002e8:	c0c0ceb7          	lui	t4,0xc0c0c
    800002ec:	0c0e8e9b          	addiw	t4,t4,192
    800002f0:	01200193          	li	gp,18
    800002f4:	45df1663          	bne	t5,t4,80000740 <fail>

00000000800002f8 <test_19>:
    800002f8:	818180b7          	lui	ra,0x81818
    800002fc:	1810809b          	addiw	ra,ra,385
    80000300:	fe700113          	li	sp,-25
    80000304:	4020df3b          	sraw	t5,ra,sp
    80000308:	ff030eb7          	lui	t4,0xff030
    8000030c:	303e8e9b          	addiw	t4,t4,771
    80000310:	01300193          	li	gp,19
    80000314:	43df1663          	bne	t5,t4,80000740 <fail>

0000000080000318 <test_20>:
    80000318:	818180b7          	lui	ra,0x81818
    8000031c:	1810809b          	addiw	ra,ra,385
    80000320:	fee00113          	li	sp,-18
    80000324:	4020df3b          	sraw	t5,ra,sp
    80000328:	fffe0eb7          	lui	t4,0xfffe0
    8000032c:	606e8e9b          	addiw	t4,t4,1542
    80000330:	01400193          	li	gp,20
    80000334:	41df1663          	bne	t5,t4,80000740 <fail>

0000000080000338 <test_21>:
    80000338:	818180b7          	lui	ra,0x81818
    8000033c:	1810809b          	addiw	ra,ra,385
    80000340:	fff00113          	li	sp,-1
    80000344:	4020df3b          	sraw	t5,ra,sp
    80000348:	fff00e93          	li	t4,-1
    8000034c:	01500193          	li	gp,21
    80000350:	3fdf1863          	bne	t5,t4,80000740 <fail>

0000000080000354 <test_44>:
    80000354:	fff120b7          	lui	ra,0xfff12
    80000358:	3450809b          	addiw	ra,ra,837
    8000035c:	00c09093          	slli	ra,ra,0xc
    80000360:	67808093          	addi	ra,ra,1656 # fffffffffff12678 <_end+0xffffffff7ff10678>
    80000364:	00000113          	li	sp,0
    80000368:	4020df3b          	sraw	t5,ra,sp
    8000036c:	12345eb7          	lui	t4,0x12345
    80000370:	678e8e9b          	addiw	t4,t4,1656
    80000374:	02c00193          	li	gp,44
    80000378:	3ddf1463          	bne	t5,t4,80000740 <fail>

000000008000037c <test_45>:
    8000037c:	fff120b7          	lui	ra,0xfff12
    80000380:	3450809b          	addiw	ra,ra,837
    80000384:	00c09093          	slli	ra,ra,0xc
    80000388:	67808093          	addi	ra,ra,1656 # fffffffffff12678 <_end+0xffffffff7ff10678>
    8000038c:	00400113          	li	sp,4
    80000390:	4020df3b          	sraw	t5,ra,sp
    80000394:	01234eb7          	lui	t4,0x1234
    80000398:	567e8e9b          	addiw	t4,t4,1383
    8000039c:	02d00193          	li	gp,45
    800003a0:	3bdf1063          	bne	t5,t4,80000740 <fail>

00000000800003a4 <test_46>:
    800003a4:	000920b7          	lui	ra,0x92
    800003a8:	3450809b          	addiw	ra,ra,837
    800003ac:	00c09093          	slli	ra,ra,0xc
    800003b0:	67808093          	addi	ra,ra,1656 # 92678 <_start-0x7ff6d988>
    800003b4:	00000113          	li	sp,0
    800003b8:	4020df3b          	sraw	t5,ra,sp
    800003bc:	92345eb7          	lui	t4,0x92345
    800003c0:	678e8e9b          	addiw	t4,t4,1656
    800003c4:	02e00193          	li	gp,46
    800003c8:	37df1c63          	bne	t5,t4,80000740 <fail>

00000000800003cc <test_47>:
    800003cc:	000920b7          	lui	ra,0x92
    800003d0:	3450809b          	addiw	ra,ra,837
    800003d4:	00c09093          	slli	ra,ra,0xc
    800003d8:	67808093          	addi	ra,ra,1656 # 92678 <_start-0x7ff6d988>
    800003dc:	00400113          	li	sp,4
    800003e0:	4020df3b          	sraw	t5,ra,sp
    800003e4:	f9234eb7          	lui	t4,0xf9234
    800003e8:	567e8e9b          	addiw	t4,t4,1383
    800003ec:	02f00193          	li	gp,47
    800003f0:	35df1863          	bne	t5,t4,80000740 <fail>

00000000800003f4 <test_22>:
    800003f4:	800000b7          	lui	ra,0x80000
    800003f8:	00700113          	li	sp,7
    800003fc:	4020d0bb          	sraw	ra,ra,sp
    80000400:	ff000eb7          	lui	t4,0xff000
    80000404:	01600193          	li	gp,22
    80000408:	33d09c63          	bne	ra,t4,80000740 <fail>

000000008000040c <test_23>:
    8000040c:	800000b7          	lui	ra,0x80000
    80000410:	00e00113          	li	sp,14
    80000414:	4020d13b          	sraw	sp,ra,sp
    80000418:	fffe0eb7          	lui	t4,0xfffe0
    8000041c:	01700193          	li	gp,23
    80000420:	33d11063          	bne	sp,t4,80000740 <fail>

0000000080000424 <test_24>:
    80000424:	00700093          	li	ra,7
    80000428:	4010d0bb          	sraw	ra,ra,ra
    8000042c:	00000e93          	li	t4,0
    80000430:	01800193          	li	gp,24
    80000434:	31d09663          	bne	ra,t4,80000740 <fail>

0000000080000438 <test_25>:
    80000438:	00000213          	li	tp,0
    8000043c:	800000b7          	lui	ra,0x80000
    80000440:	00700113          	li	sp,7
    80000444:	4020df3b          	sraw	t5,ra,sp
    80000448:	000f0313          	mv	t1,t5
    8000044c:	00120213          	addi	tp,tp,1 # 1 <_start-0x7fffffff>
    80000450:	00200293          	li	t0,2
    80000454:	fe5214e3          	bne	tp,t0,8000043c <test_25+0x4>
    80000458:	ff000eb7          	lui	t4,0xff000
    8000045c:	01900193          	li	gp,25
    80000460:	2fd31063          	bne	t1,t4,80000740 <fail>

0000000080000464 <test_26>:
    80000464:	00000213          	li	tp,0
    80000468:	800000b7          	lui	ra,0x80000
    8000046c:	00e00113          	li	sp,14
    80000470:	4020df3b          	sraw	t5,ra,sp
    80000474:	00000013          	nop
    80000478:	000f0313          	mv	t1,t5
    8000047c:	00120213          	addi	tp,tp,1 # 1 <_start-0x7fffffff>
    80000480:	00200293          	li	t0,2
    80000484:	fe5212e3          	bne	tp,t0,80000468 <test_26+0x4>
    80000488:	fffe0eb7          	lui	t4,0xfffe0
    8000048c:	01a00193          	li	gp,26
    80000490:	2bd31863          	bne	t1,t4,80000740 <fail>

0000000080000494 <test_27>:
    80000494:	00000213          	li	tp,0
    80000498:	800000b7          	lui	ra,0x80000
    8000049c:	01f00113          	li	sp,31
    800004a0:	4020df3b          	sraw	t5,ra,sp
    800004a4:	00000013          	nop
    800004a8:	00000013          	nop
    800004ac:	000f0313          	mv	t1,t5
    800004b0:	00120213          	addi	tp,tp,1 # 1 <_start-0x7fffffff>
    800004b4:	00200293          	li	t0,2
    800004b8:	fe5210e3          	bne	tp,t0,80000498 <test_27+0x4>
    800004bc:	fff00e93          	li	t4,-1
    800004c0:	01b00193          	li	gp,27
    800004c4:	27d31e63          	bne	t1,t4,80000740 <fail>

00000000800004c8 <test_28>:
    800004c8:	00000213          	li	tp,0
    800004cc:	800000b7          	lui	ra,0x80000
    800004d0:	00700113          	li	sp,7
    800004d4:	4020df3b          	sraw	t5,ra,sp
    800004d8:	00120213          	addi	tp,tp,1 # 1 <_start-0x7fffffff>
    800004dc:	00200293          	li	t0,2
    800004e0:	fe5216e3          	bne	tp,t0,800004cc <test_28+0x4>
    800004e4:	ff000eb7          	lui	t4,0xff000
    800004e8:	01c00193          	li	gp,28
    800004ec:	25df1a63          	bne	t5,t4,80000740 <fail>

00000000800004f0 <test_29>:
    800004f0:	00000213          	li	tp,0
    800004f4:	800000b7          	lui	ra,0x80000
    800004f8:	00e00113          	li	sp,14
    800004fc:	00000013          	nop
    80000500:	4020df3b          	sraw	t5,ra,sp
    80000504:	00120213          	addi	tp,tp,1 # 1 <_start-0x7fffffff>
    80000508:	00200293          	li	t0,2
    8000050c:	fe5214e3          	bne	tp,t0,800004f4 <test_29+0x4>
    80000510:	fffe0eb7          	lui	t4,0xfffe0
    80000514:	01d00193          	li	gp,29
    80000518:	23df1463          	bne	t5,t4,80000740 <fail>

000000008000051c <test_30>:
    8000051c:	00000213          	li	tp,0
    80000520:	800000b7          	lui	ra,0x80000
    80000524:	01f00113          	li	sp,31
    80000528:	00000013          	nop
    8000052c:	00000013          	nop
    80000530:	4020df3b          	sraw	t5,ra,sp
    80000534:	00120213          	addi	tp,tp,1 # 1 <_start-0x7fffffff>
    80000538:	00200293          	li	t0,2
    8000053c:	fe5212e3          	bne	tp,t0,80000520 <test_30+0x4>
    80000540:	fff00e93          	li	t4,-1
    80000544:	01e00193          	li	gp,30
    80000548:	1fdf1c63          	bne	t5,t4,80000740 <fail>

000000008000054c <test_31>:
    8000054c:	00000213          	li	tp,0
    80000550:	800000b7          	lui	ra,0x80000
    80000554:	00000013          	nop
    80000558:	00700113          	li	sp,7
    8000055c:	4020df3b          	sraw	t5,ra,sp
    80000560:	00120213          	addi	tp,tp,1 # 1 <_start-0x7fffffff>
    80000564:	00200293          	li	t0,2
    80000568:	fe5214e3          	bne	tp,t0,80000550 <test_31+0x4>
    8000056c:	ff000eb7          	lui	t4,0xff000
    80000570:	01f00193          	li	gp,31
    80000574:	1ddf1663          	bne	t5,t4,80000740 <fail>

0000000080000578 <test_32>:
    80000578:	00000213          	li	tp,0
    8000057c:	800000b7          	lui	ra,0x80000
    80000580:	00000013          	nop
    80000584:	00e00113          	li	sp,14
    80000588:	00000013          	nop
    8000058c:	4020df3b          	sraw	t5,ra,sp
    80000590:	00120213          	addi	tp,tp,1 # 1 <_start-0x7fffffff>
    80000594:	00200293          	li	t0,2
    80000598:	fe5212e3          	bne	tp,t0,8000057c <test_32+0x4>
    8000059c:	fffe0eb7          	lui	t4,0xfffe0
    800005a0:	02000193          	li	gp,32
    800005a4:	19df1e63          	bne	t5,t4,80000740 <fail>

00000000800005a8 <test_33>:
    800005a8:	00000213          	li	tp,0
    800005ac:	800000b7          	lui	ra,0x80000
    800005b0:	00000013          	nop
    800005b4:	00000013          	nop
    800005b8:	01f00113          	li	sp,31
    800005bc:	4020df3b          	sraw	t5,ra,sp
    800005c0:	00120213          	addi	tp,tp,1 # 1 <_start-0x7fffffff>
    800005c4:	00200293          	li	t0,2
    800005c8:	fe5212e3          	bne	tp,t0,800005ac <test_33+0x4>
    800005cc:	fff00e93          	li	t4,-1
    800005d0:	02100193          	li	gp,33
    800005d4:	17df1663          	bne	t5,t4,80000740 <fail>

00000000800005d8 <test_34>:
    800005d8:	00000213          	li	tp,0
    800005dc:	00700113          	li	sp,7
    800005e0:	800000b7          	lui	ra,0x80000
    800005e4:	4020df3b          	sraw	t5,ra,sp
    800005e8:	00120213          	addi	tp,tp,1 # 1 <_start-0x7fffffff>
    800005ec:	00200293          	li	t0,2
    800005f0:	fe5216e3          	bne	tp,t0,800005dc <test_34+0x4>
    800005f4:	ff000eb7          	lui	t4,0xff000
    800005f8:	02200193          	li	gp,34
    800005fc:	15df1263          	bne	t5,t4,80000740 <fail>

0000000080000600 <test_35>:
    80000600:	00000213          	li	tp,0
    80000604:	00e00113          	li	sp,14
    80000608:	800000b7          	lui	ra,0x80000
    8000060c:	00000013          	nop
    80000610:	4020df3b          	sraw	t5,ra,sp
    80000614:	00120213          	addi	tp,tp,1 # 1 <_start-0x7fffffff>
    80000618:	00200293          	li	t0,2
    8000061c:	fe5214e3          	bne	tp,t0,80000604 <test_35+0x4>
    80000620:	fffe0eb7          	lui	t4,0xfffe0
    80000624:	02300193          	li	gp,35
    80000628:	11df1c63          	bne	t5,t4,80000740 <fail>

000000008000062c <test_36>:
    8000062c:	00000213          	li	tp,0
    80000630:	01f00113          	li	sp,31
    80000634:	800000b7          	lui	ra,0x80000
    80000638:	00000013          	nop
    8000063c:	00000013          	nop
    80000640:	4020df3b          	sraw	t5,ra,sp
    80000644:	00120213          	addi	tp,tp,1 # 1 <_start-0x7fffffff>
    80000648:	00200293          	li	t0,2
    8000064c:	fe5212e3          	bne	tp,t0,80000630 <test_36+0x4>
    80000650:	fff00e93          	li	t4,-1
    80000654:	02400193          	li	gp,36
    80000658:	0fdf1463          	bne	t5,t4,80000740 <fail>

000000008000065c <test_37>:
    8000065c:	00000213          	li	tp,0
    80000660:	00700113          	li	sp,7
    80000664:	00000013          	nop
    80000668:	800000b7          	lui	ra,0x80000
    8000066c:	4020df3b          	sraw	t5,ra,sp
    80000670:	00120213          	addi	tp,tp,1 # 1 <_start-0x7fffffff>
    80000674:	00200293          	li	t0,2
    80000678:	fe5214e3          	bne	tp,t0,80000660 <test_37+0x4>
    8000067c:	ff000eb7          	lui	t4,0xff000
    80000680:	02500193          	li	gp,37
    80000684:	0bdf1e63          	bne	t5,t4,80000740 <fail>

0000000080000688 <test_38>:
    80000688:	00000213          	li	tp,0
    8000068c:	00e00113          	li	sp,14
    80000690:	00000013          	nop
    80000694:	800000b7          	lui	ra,0x80000
    80000698:	00000013          	nop
    8000069c:	4020df3b          	sraw	t5,ra,sp
    800006a0:	00120213          	addi	tp,tp,1 # 1 <_start-0x7fffffff>
    800006a4:	00200293          	li	t0,2
    800006a8:	fe5212e3          	bne	tp,t0,8000068c <test_38+0x4>
    800006ac:	fffe0eb7          	lui	t4,0xfffe0
    800006b0:	02600193          	li	gp,38
    800006b4:	09df1663          	bne	t5,t4,80000740 <fail>

00000000800006b8 <test_39>:
    800006b8:	00000213          	li	tp,0
    800006bc:	01f00113          	li	sp,31
    800006c0:	00000013          	nop
    800006c4:	00000013          	nop
    800006c8:	800000b7          	lui	ra,0x80000
    800006cc:	4020df3b          	sraw	t5,ra,sp
    800006d0:	00120213          	addi	tp,tp,1 # 1 <_start-0x7fffffff>
    800006d4:	00200293          	li	t0,2
    800006d8:	fe5212e3          	bne	tp,t0,800006bc <test_39+0x4>
    800006dc:	fff00e93          	li	t4,-1
    800006e0:	02700193          	li	gp,39
    800006e4:	05df1e63          	bne	t5,t4,80000740 <fail>

00000000800006e8 <test_40>:
    800006e8:	00f00093          	li	ra,15
    800006ec:	4010513b          	sraw	sp,zero,ra
    800006f0:	00000e93          	li	t4,0
    800006f4:	02800193          	li	gp,40
    800006f8:	05d11463          	bne	sp,t4,80000740 <fail>

00000000800006fc <test_41>:
    800006fc:	02000093          	li	ra,32
    80000700:	4000d13b          	sraw	sp,ra,zero
    80000704:	02000e93          	li	t4,32
    80000708:	02900193          	li	gp,41
    8000070c:	03d11a63          	bne	sp,t4,80000740 <fail>

0000000080000710 <test_42>:
    80000710:	400050bb          	sraw	ra,zero,zero
    80000714:	00000e93          	li	t4,0
    80000718:	02a00193          	li	gp,42
    8000071c:	03d09263          	bne	ra,t4,80000740 <fail>

0000000080000720 <test_43>:
    80000720:	40000093          	li	ra,1024
    80000724:	00001137          	lui	sp,0x1
    80000728:	8001011b          	addiw	sp,sp,-2048
    8000072c:	4020d03b          	sraw	zero,ra,sp
    80000730:	00000e93          	li	t4,0
    80000734:	02b00193          	li	gp,43
    80000738:	01d01463          	bne	zero,t4,80000740 <fail>
    8000073c:	00301c63          	bne	zero,gp,80000754 <pass>

0000000080000740 <fail>:
    80000740:	0ff0000f          	fence
    80000744:	00018063          	beqz	gp,80000744 <fail+0x4>
    80000748:	00119193          	slli	gp,gp,0x1
    8000074c:	0011e193          	ori	gp,gp,1
    80000750:	00000073          	ecall

0000000080000754 <pass>:
    80000754:	0ff0000f          	fence
    80000758:	00100193          	li	gp,1
    8000075c:	00000073          	ecall
    80000760:	c0001073          	unimp
    80000764:	0000                	unimp
    80000766:	0000                	unimp
    80000768:	0000                	unimp
    8000076a:	0000                	unimp
    8000076c:	0000                	unimp
    8000076e:	0000                	unimp
    80000770:	0000                	unimp
    80000772:	0000                	unimp
    80000774:	0000                	unimp
    80000776:	0000                	unimp
    80000778:	0000                	unimp
    8000077a:	0000                	unimp
    8000077c:	0000                	unimp
    8000077e:	0000                	unimp
    80000780:	0000                	unimp
    80000782:	0000                	unimp
