
rv64ud-p-fcvt_w:     file format elf64-littleriscv


Disassembly of section .text.init:

0000000080000000 <_start>:
    80000000:	04c0006f          	j	8000004c <reset_vector>

0000000080000004 <trap_vector>:
    80000004:	34202f73          	csrr	t5,mcause
    80000008:	00800f93          	li	t6,8
    8000000c:	03ff0a63          	beq	t5,t6,80000040 <write_tohost>
    80000010:	00900f93          	li	t6,9
    80000014:	03ff0663          	beq	t5,t6,80000040 <write_tohost>
    80000018:	00b00f93          	li	t6,11
    8000001c:	03ff0263          	beq	t5,t6,80000040 <write_tohost>
    80000020:	80000f17          	auipc	t5,0x80000
    80000024:	fe0f0f13          	addi	t5,t5,-32 # 0 <_start-0x80000000>
    80000028:	000f0463          	beqz	t5,80000030 <trap_vector+0x2c>
    8000002c:	000f0067          	jr	t5
    80000030:	34202f73          	csrr	t5,mcause
    80000034:	000f5463          	bgez	t5,8000003c <handle_exception>
    80000038:	0040006f          	j	8000003c <handle_exception>

000000008000003c <handle_exception>:
    8000003c:	5391e193          	ori	gp,gp,1337

0000000080000040 <write_tohost>:
    80000040:	00001f17          	auipc	t5,0x1
    80000044:	fc3f2023          	sw	gp,-64(t5) # 80001000 <tohost>
    80000048:	ff9ff06f          	j	80000040 <write_tohost>

000000008000004c <reset_vector>:
    8000004c:	f1402573          	csrr	a0,mhartid
    80000050:	00051063          	bnez	a0,80000050 <reset_vector+0x4>
    80000054:	00000297          	auipc	t0,0x0
    80000058:	01028293          	addi	t0,t0,16 # 80000064 <reset_vector+0x18>
    8000005c:	30529073          	csrw	mtvec,t0
    80000060:	18005073          	csrwi	satp,0
    80000064:	00000297          	auipc	t0,0x0
    80000068:	02428293          	addi	t0,t0,36 # 80000088 <reset_vector+0x3c>
    8000006c:	30529073          	csrw	mtvec,t0
    80000070:	0010029b          	addiw	t0,zero,1
    80000074:	03529293          	slli	t0,t0,0x35
    80000078:	fff28293          	addi	t0,t0,-1
    8000007c:	3b029073          	csrw	pmpaddr0,t0
    80000080:	01f00293          	li	t0,31
    80000084:	3a029073          	csrw	pmpcfg0,t0
    80000088:	00000297          	auipc	t0,0x0
    8000008c:	01828293          	addi	t0,t0,24 # 800000a0 <reset_vector+0x54>
    80000090:	30529073          	csrw	mtvec,t0
    80000094:	30205073          	csrwi	medeleg,0
    80000098:	30305073          	csrwi	mideleg,0
    8000009c:	30405073          	csrwi	mie,0
    800000a0:	00000193          	li	gp,0
    800000a4:	00000297          	auipc	t0,0x0
    800000a8:	f6028293          	addi	t0,t0,-160 # 80000004 <trap_vector>
    800000ac:	30529073          	csrw	mtvec,t0
    800000b0:	00100513          	li	a0,1
    800000b4:	01f51513          	slli	a0,a0,0x1f
    800000b8:	00055863          	bgez	a0,800000c8 <reset_vector+0x7c>
    800000bc:	0ff0000f          	fence
    800000c0:	00100193          	li	gp,1
    800000c4:	00000073          	ecall
    800000c8:	80000297          	auipc	t0,0x80000
    800000cc:	f3828293          	addi	t0,t0,-200 # 0 <_start-0x80000000>
    800000d0:	00028e63          	beqz	t0,800000ec <reset_vector+0xa0>
    800000d4:	10529073          	csrw	stvec,t0
    800000d8:	0000b2b7          	lui	t0,0xb
    800000dc:	1092829b          	addiw	t0,t0,265
    800000e0:	30229073          	csrw	medeleg,t0
    800000e4:	30202373          	csrr	t1,medeleg
    800000e8:	f4629ae3          	bne	t0,t1,8000003c <handle_exception>
    800000ec:	30005073          	csrwi	mstatus,0
    800000f0:	00002537          	lui	a0,0x2
    800000f4:	30052073          	csrs	mstatus,a0
    800000f8:	00305073          	csrwi	fcsr,0
    800000fc:	00000297          	auipc	t0,0x0
    80000100:	01428293          	addi	t0,t0,20 # 80000110 <test_2>
    80000104:	34129073          	csrw	mepc,t0
    80000108:	f1402573          	csrr	a0,mhartid
    8000010c:	30200073          	mret

0000000080000110 <test_2>:
    80000110:	00200193          	li	gp,2
    80000114:	00002517          	auipc	a0,0x2
    80000118:	eec50513          	addi	a0,a0,-276 # 80002000 <test_2_data>
    8000011c:	00053007          	fld	ft0,0(a0)
    80000120:	00853087          	fld	ft1,8(a0)
    80000124:	01053107          	fld	ft2,16(a0)
    80000128:	01853683          	ld	a3,24(a0)
    8000012c:	c2001553          	fcvt.w.d	a0,ft0,rtz
    80000130:	001015f3          	fsflags	a1,zero
    80000134:	00100613          	li	a2,1
    80000138:	02d512e3          	bne	a0,a3,8000095c <fail>
    8000013c:	02c590e3          	bne	a1,a2,8000095c <fail>

0000000080000140 <test_3>:
    80000140:	00300193          	li	gp,3
    80000144:	00002517          	auipc	a0,0x2
    80000148:	edc50513          	addi	a0,a0,-292 # 80002020 <test_3_data>
    8000014c:	00053007          	fld	ft0,0(a0)
    80000150:	00853087          	fld	ft1,8(a0)
    80000154:	01053107          	fld	ft2,16(a0)
    80000158:	01853683          	ld	a3,24(a0)
    8000015c:	c2001553          	fcvt.w.d	a0,ft0,rtz
    80000160:	001015f3          	fsflags	a1,zero
    80000164:	00000613          	li	a2,0
    80000168:	7ed51a63          	bne	a0,a3,8000095c <fail>
    8000016c:	7ec59863          	bne	a1,a2,8000095c <fail>

0000000080000170 <test_4>:
    80000170:	00400193          	li	gp,4
    80000174:	00002517          	auipc	a0,0x2
    80000178:	ecc50513          	addi	a0,a0,-308 # 80002040 <test_4_data>
    8000017c:	00053007          	fld	ft0,0(a0)
    80000180:	00853087          	fld	ft1,8(a0)
    80000184:	01053107          	fld	ft2,16(a0)
    80000188:	01853683          	ld	a3,24(a0)
    8000018c:	c2001553          	fcvt.w.d	a0,ft0,rtz
    80000190:	001015f3          	fsflags	a1,zero
    80000194:	00100613          	li	a2,1
    80000198:	7cd51263          	bne	a0,a3,8000095c <fail>
    8000019c:	7cc59063          	bne	a1,a2,8000095c <fail>

00000000800001a0 <test_5>:
    800001a0:	00500193          	li	gp,5
    800001a4:	00002517          	auipc	a0,0x2
    800001a8:	ebc50513          	addi	a0,a0,-324 # 80002060 <test_5_data>
    800001ac:	00053007          	fld	ft0,0(a0)
    800001b0:	00853087          	fld	ft1,8(a0)
    800001b4:	01053107          	fld	ft2,16(a0)
    800001b8:	01853683          	ld	a3,24(a0)
    800001bc:	c2001553          	fcvt.w.d	a0,ft0,rtz
    800001c0:	001015f3          	fsflags	a1,zero
    800001c4:	00100613          	li	a2,1
    800001c8:	78d51a63          	bne	a0,a3,8000095c <fail>
    800001cc:	78c59863          	bne	a1,a2,8000095c <fail>

00000000800001d0 <test_6>:
    800001d0:	00600193          	li	gp,6
    800001d4:	00002517          	auipc	a0,0x2
    800001d8:	eac50513          	addi	a0,a0,-340 # 80002080 <test_6_data>
    800001dc:	00053007          	fld	ft0,0(a0)
    800001e0:	00853087          	fld	ft1,8(a0)
    800001e4:	01053107          	fld	ft2,16(a0)
    800001e8:	01853683          	ld	a3,24(a0)
    800001ec:	c2001553          	fcvt.w.d	a0,ft0,rtz
    800001f0:	001015f3          	fsflags	a1,zero
    800001f4:	00000613          	li	a2,0
    800001f8:	76d51263          	bne	a0,a3,8000095c <fail>
    800001fc:	76c59063          	bne	a1,a2,8000095c <fail>

0000000080000200 <test_7>:
    80000200:	00700193          	li	gp,7
    80000204:	00002517          	auipc	a0,0x2
    80000208:	e9c50513          	addi	a0,a0,-356 # 800020a0 <test_7_data>
    8000020c:	00053007          	fld	ft0,0(a0)
    80000210:	00853087          	fld	ft1,8(a0)
    80000214:	01053107          	fld	ft2,16(a0)
    80000218:	01853683          	ld	a3,24(a0)
    8000021c:	c2001553          	fcvt.w.d	a0,ft0,rtz
    80000220:	001015f3          	fsflags	a1,zero
    80000224:	00100613          	li	a2,1
    80000228:	72d51a63          	bne	a0,a3,8000095c <fail>
    8000022c:	72c59863          	bne	a1,a2,8000095c <fail>

0000000080000230 <test_8>:
    80000230:	00800193          	li	gp,8
    80000234:	00002517          	auipc	a0,0x2
    80000238:	e8c50513          	addi	a0,a0,-372 # 800020c0 <test_8_data>
    8000023c:	00053007          	fld	ft0,0(a0)
    80000240:	00853087          	fld	ft1,8(a0)
    80000244:	01053107          	fld	ft2,16(a0)
    80000248:	01853683          	ld	a3,24(a0)
    8000024c:	c2001553          	fcvt.w.d	a0,ft0,rtz
    80000250:	001015f3          	fsflags	a1,zero
    80000254:	01000613          	li	a2,16
    80000258:	70d51263          	bne	a0,a3,8000095c <fail>
    8000025c:	70c59063          	bne	a1,a2,8000095c <fail>

0000000080000260 <test_9>:
    80000260:	00900193          	li	gp,9
    80000264:	00002517          	auipc	a0,0x2
    80000268:	e7c50513          	addi	a0,a0,-388 # 800020e0 <test_9_data>
    8000026c:	00053007          	fld	ft0,0(a0)
    80000270:	00853087          	fld	ft1,8(a0)
    80000274:	01053107          	fld	ft2,16(a0)
    80000278:	01853683          	ld	a3,24(a0)
    8000027c:	c2001553          	fcvt.w.d	a0,ft0,rtz
    80000280:	001015f3          	fsflags	a1,zero
    80000284:	01000613          	li	a2,16
    80000288:	6cd51a63          	bne	a0,a3,8000095c <fail>
    8000028c:	6cc59863          	bne	a1,a2,8000095c <fail>

0000000080000290 <test_12>:
    80000290:	00c00193          	li	gp,12
    80000294:	00002517          	auipc	a0,0x2
    80000298:	e6c50513          	addi	a0,a0,-404 # 80002100 <test_12_data>
    8000029c:	00053007          	fld	ft0,0(a0)
    800002a0:	00853087          	fld	ft1,8(a0)
    800002a4:	01053107          	fld	ft2,16(a0)
    800002a8:	01853683          	ld	a3,24(a0)
    800002ac:	c2101553          	fcvt.wu.d	a0,ft0,rtz
    800002b0:	001015f3          	fsflags	a1,zero
    800002b4:	01000613          	li	a2,16
    800002b8:	6ad51263          	bne	a0,a3,8000095c <fail>
    800002bc:	6ac59063          	bne	a1,a2,8000095c <fail>

00000000800002c0 <test_13>:
    800002c0:	00d00193          	li	gp,13
    800002c4:	00002517          	auipc	a0,0x2
    800002c8:	e5c50513          	addi	a0,a0,-420 # 80002120 <test_13_data>
    800002cc:	00053007          	fld	ft0,0(a0)
    800002d0:	00853087          	fld	ft1,8(a0)
    800002d4:	01053107          	fld	ft2,16(a0)
    800002d8:	01853683          	ld	a3,24(a0)
    800002dc:	c2101553          	fcvt.wu.d	a0,ft0,rtz
    800002e0:	001015f3          	fsflags	a1,zero
    800002e4:	01000613          	li	a2,16
    800002e8:	66d51a63          	bne	a0,a3,8000095c <fail>
    800002ec:	66c59863          	bne	a1,a2,8000095c <fail>

00000000800002f0 <test_14>:
    800002f0:	00e00193          	li	gp,14
    800002f4:	00002517          	auipc	a0,0x2
    800002f8:	e4c50513          	addi	a0,a0,-436 # 80002140 <test_14_data>
    800002fc:	00053007          	fld	ft0,0(a0)
    80000300:	00853087          	fld	ft1,8(a0)
    80000304:	01053107          	fld	ft2,16(a0)
    80000308:	01853683          	ld	a3,24(a0)
    8000030c:	c2101553          	fcvt.wu.d	a0,ft0,rtz
    80000310:	001015f3          	fsflags	a1,zero
    80000314:	00100613          	li	a2,1
    80000318:	64d51263          	bne	a0,a3,8000095c <fail>
    8000031c:	64c59063          	bne	a1,a2,8000095c <fail>

0000000080000320 <test_15>:
    80000320:	00f00193          	li	gp,15
    80000324:	00002517          	auipc	a0,0x2
    80000328:	e3c50513          	addi	a0,a0,-452 # 80002160 <test_15_data>
    8000032c:	00053007          	fld	ft0,0(a0)
    80000330:	00853087          	fld	ft1,8(a0)
    80000334:	01053107          	fld	ft2,16(a0)
    80000338:	01853683          	ld	a3,24(a0)
    8000033c:	c2101553          	fcvt.wu.d	a0,ft0,rtz
    80000340:	001015f3          	fsflags	a1,zero
    80000344:	00100613          	li	a2,1
    80000348:	60d51a63          	bne	a0,a3,8000095c <fail>
    8000034c:	60c59863          	bne	a1,a2,8000095c <fail>

0000000080000350 <test_16>:
    80000350:	01000193          	li	gp,16
    80000354:	00002517          	auipc	a0,0x2
    80000358:	e2c50513          	addi	a0,a0,-468 # 80002180 <test_16_data>
    8000035c:	00053007          	fld	ft0,0(a0)
    80000360:	00853087          	fld	ft1,8(a0)
    80000364:	01053107          	fld	ft2,16(a0)
    80000368:	01853683          	ld	a3,24(a0)
    8000036c:	c2101553          	fcvt.wu.d	a0,ft0,rtz
    80000370:	001015f3          	fsflags	a1,zero
    80000374:	00000613          	li	a2,0
    80000378:	5ed51263          	bne	a0,a3,8000095c <fail>
    8000037c:	5ec59063          	bne	a1,a2,8000095c <fail>

0000000080000380 <test_17>:
    80000380:	01100193          	li	gp,17
    80000384:	00002517          	auipc	a0,0x2
    80000388:	e1c50513          	addi	a0,a0,-484 # 800021a0 <test_17_data>
    8000038c:	00053007          	fld	ft0,0(a0)
    80000390:	00853087          	fld	ft1,8(a0)
    80000394:	01053107          	fld	ft2,16(a0)
    80000398:	01853683          	ld	a3,24(a0)
    8000039c:	c2101553          	fcvt.wu.d	a0,ft0,rtz
    800003a0:	001015f3          	fsflags	a1,zero
    800003a4:	00100613          	li	a2,1
    800003a8:	5ad51a63          	bne	a0,a3,8000095c <fail>
    800003ac:	5ac59863          	bne	a1,a2,8000095c <fail>

00000000800003b0 <test_18>:
    800003b0:	01200193          	li	gp,18
    800003b4:	00002517          	auipc	a0,0x2
    800003b8:	e0c50513          	addi	a0,a0,-500 # 800021c0 <test_18_data>
    800003bc:	00053007          	fld	ft0,0(a0)
    800003c0:	00853087          	fld	ft1,8(a0)
    800003c4:	01053107          	fld	ft2,16(a0)
    800003c8:	01853683          	ld	a3,24(a0)
    800003cc:	c2101553          	fcvt.wu.d	a0,ft0,rtz
    800003d0:	001015f3          	fsflags	a1,zero
    800003d4:	01000613          	li	a2,16
    800003d8:	58d51263          	bne	a0,a3,8000095c <fail>
    800003dc:	58c59063          	bne	a1,a2,8000095c <fail>

00000000800003e0 <test_19>:
    800003e0:	01300193          	li	gp,19
    800003e4:	00002517          	auipc	a0,0x2
    800003e8:	dfc50513          	addi	a0,a0,-516 # 800021e0 <test_19_data>
    800003ec:	00053007          	fld	ft0,0(a0)
    800003f0:	00853087          	fld	ft1,8(a0)
    800003f4:	01053107          	fld	ft2,16(a0)
    800003f8:	01853683          	ld	a3,24(a0)
    800003fc:	c2101553          	fcvt.wu.d	a0,ft0,rtz
    80000400:	001015f3          	fsflags	a1,zero
    80000404:	00000613          	li	a2,0
    80000408:	54d51a63          	bne	a0,a3,8000095c <fail>
    8000040c:	54c59863          	bne	a1,a2,8000095c <fail>

0000000080000410 <test_22>:
    80000410:	01600193          	li	gp,22
    80000414:	00002517          	auipc	a0,0x2
    80000418:	dec50513          	addi	a0,a0,-532 # 80002200 <test_22_data>
    8000041c:	00053007          	fld	ft0,0(a0)
    80000420:	00853087          	fld	ft1,8(a0)
    80000424:	01053107          	fld	ft2,16(a0)
    80000428:	01853683          	ld	a3,24(a0)
    8000042c:	c2201553          	fcvt.l.d	a0,ft0,rtz
    80000430:	001015f3          	fsflags	a1,zero
    80000434:	00100613          	li	a2,1
    80000438:	52d51263          	bne	a0,a3,8000095c <fail>
    8000043c:	52c59063          	bne	a1,a2,8000095c <fail>

0000000080000440 <test_23>:
    80000440:	01700193          	li	gp,23
    80000444:	00002517          	auipc	a0,0x2
    80000448:	ddc50513          	addi	a0,a0,-548 # 80002220 <test_23_data>
    8000044c:	00053007          	fld	ft0,0(a0)
    80000450:	00853087          	fld	ft1,8(a0)
    80000454:	01053107          	fld	ft2,16(a0)
    80000458:	01853683          	ld	a3,24(a0)
    8000045c:	c2201553          	fcvt.l.d	a0,ft0,rtz
    80000460:	001015f3          	fsflags	a1,zero
    80000464:	00000613          	li	a2,0
    80000468:	4ed51a63          	bne	a0,a3,8000095c <fail>
    8000046c:	4ec59863          	bne	a1,a2,8000095c <fail>

0000000080000470 <test_24>:
    80000470:	01800193          	li	gp,24
    80000474:	00002517          	auipc	a0,0x2
    80000478:	dcc50513          	addi	a0,a0,-564 # 80002240 <test_24_data>
    8000047c:	00053007          	fld	ft0,0(a0)
    80000480:	00853087          	fld	ft1,8(a0)
    80000484:	01053107          	fld	ft2,16(a0)
    80000488:	01853683          	ld	a3,24(a0)
    8000048c:	c2201553          	fcvt.l.d	a0,ft0,rtz
    80000490:	001015f3          	fsflags	a1,zero
    80000494:	00100613          	li	a2,1
    80000498:	4cd51263          	bne	a0,a3,8000095c <fail>
    8000049c:	4cc59063          	bne	a1,a2,8000095c <fail>

00000000800004a0 <test_25>:
    800004a0:	01900193          	li	gp,25
    800004a4:	00002517          	auipc	a0,0x2
    800004a8:	dbc50513          	addi	a0,a0,-580 # 80002260 <test_25_data>
    800004ac:	00053007          	fld	ft0,0(a0)
    800004b0:	00853087          	fld	ft1,8(a0)
    800004b4:	01053107          	fld	ft2,16(a0)
    800004b8:	01853683          	ld	a3,24(a0)
    800004bc:	c2201553          	fcvt.l.d	a0,ft0,rtz
    800004c0:	001015f3          	fsflags	a1,zero
    800004c4:	00100613          	li	a2,1
    800004c8:	48d51a63          	bne	a0,a3,8000095c <fail>
    800004cc:	48c59863          	bne	a1,a2,8000095c <fail>

00000000800004d0 <test_26>:
    800004d0:	01a00193          	li	gp,26
    800004d4:	00002517          	auipc	a0,0x2
    800004d8:	dac50513          	addi	a0,a0,-596 # 80002280 <test_26_data>
    800004dc:	00053007          	fld	ft0,0(a0)
    800004e0:	00853087          	fld	ft1,8(a0)
    800004e4:	01053107          	fld	ft2,16(a0)
    800004e8:	01853683          	ld	a3,24(a0)
    800004ec:	c2201553          	fcvt.l.d	a0,ft0,rtz
    800004f0:	001015f3          	fsflags	a1,zero
    800004f4:	00000613          	li	a2,0
    800004f8:	46d51263          	bne	a0,a3,8000095c <fail>
    800004fc:	46c59063          	bne	a1,a2,8000095c <fail>

0000000080000500 <test_27>:
    80000500:	01b00193          	li	gp,27
    80000504:	00002517          	auipc	a0,0x2
    80000508:	d9c50513          	addi	a0,a0,-612 # 800022a0 <test_27_data>
    8000050c:	00053007          	fld	ft0,0(a0)
    80000510:	00853087          	fld	ft1,8(a0)
    80000514:	01053107          	fld	ft2,16(a0)
    80000518:	01853683          	ld	a3,24(a0)
    8000051c:	c2201553          	fcvt.l.d	a0,ft0,rtz
    80000520:	001015f3          	fsflags	a1,zero
    80000524:	00100613          	li	a2,1
    80000528:	42d51a63          	bne	a0,a3,8000095c <fail>
    8000052c:	42c59863          	bne	a1,a2,8000095c <fail>

0000000080000530 <test_28>:
    80000530:	01c00193          	li	gp,28
    80000534:	00002517          	auipc	a0,0x2
    80000538:	d8c50513          	addi	a0,a0,-628 # 800022c0 <test_28_data>
    8000053c:	00053007          	fld	ft0,0(a0)
    80000540:	00853087          	fld	ft1,8(a0)
    80000544:	01053107          	fld	ft2,16(a0)
    80000548:	01853683          	ld	a3,24(a0)
    8000054c:	c2201553          	fcvt.l.d	a0,ft0,rtz
    80000550:	001015f3          	fsflags	a1,zero
    80000554:	00000613          	li	a2,0
    80000558:	40d51263          	bne	a0,a3,8000095c <fail>
    8000055c:	40c59063          	bne	a1,a2,8000095c <fail>

0000000080000560 <test_29>:
    80000560:	01d00193          	li	gp,29
    80000564:	00002517          	auipc	a0,0x2
    80000568:	d7c50513          	addi	a0,a0,-644 # 800022e0 <test_29_data>
    8000056c:	00053007          	fld	ft0,0(a0)
    80000570:	00853087          	fld	ft1,8(a0)
    80000574:	01053107          	fld	ft2,16(a0)
    80000578:	01853683          	ld	a3,24(a0)
    8000057c:	c2201553          	fcvt.l.d	a0,ft0,rtz
    80000580:	001015f3          	fsflags	a1,zero
    80000584:	00000613          	li	a2,0
    80000588:	3cd51a63          	bne	a0,a3,8000095c <fail>
    8000058c:	3cc59863          	bne	a1,a2,8000095c <fail>

0000000080000590 <test_20>:
    80000590:	01400193          	li	gp,20
    80000594:	00002517          	auipc	a0,0x2
    80000598:	d6c50513          	addi	a0,a0,-660 # 80002300 <test_20_data>
    8000059c:	00053007          	fld	ft0,0(a0)
    800005a0:	00853087          	fld	ft1,8(a0)
    800005a4:	01053107          	fld	ft2,16(a0)
    800005a8:	01853683          	ld	a3,24(a0)
    800005ac:	c2201553          	fcvt.l.d	a0,ft0,rtz
    800005b0:	001015f3          	fsflags	a1,zero
    800005b4:	01000613          	li	a2,16
    800005b8:	3ad51263          	bne	a0,a3,8000095c <fail>
    800005bc:	3ac59063          	bne	a1,a2,8000095c <fail>

00000000800005c0 <test_21>:
    800005c0:	01500193          	li	gp,21
    800005c4:	00002517          	auipc	a0,0x2
    800005c8:	d5c50513          	addi	a0,a0,-676 # 80002320 <test_21_data>
    800005cc:	00053007          	fld	ft0,0(a0)
    800005d0:	00853087          	fld	ft1,8(a0)
    800005d4:	01053107          	fld	ft2,16(a0)
    800005d8:	01853683          	ld	a3,24(a0)
    800005dc:	c2201553          	fcvt.l.d	a0,ft0,rtz
    800005e0:	001015f3          	fsflags	a1,zero
    800005e4:	01000613          	li	a2,16
    800005e8:	36d51a63          	bne	a0,a3,8000095c <fail>
    800005ec:	36c59863          	bne	a1,a2,8000095c <fail>

00000000800005f0 <test_32>:
    800005f0:	02000193          	li	gp,32
    800005f4:	00002517          	auipc	a0,0x2
    800005f8:	d4c50513          	addi	a0,a0,-692 # 80002340 <test_32_data>
    800005fc:	00053007          	fld	ft0,0(a0)
    80000600:	00853087          	fld	ft1,8(a0)
    80000604:	01053107          	fld	ft2,16(a0)
    80000608:	01853683          	ld	a3,24(a0)
    8000060c:	c2301553          	fcvt.lu.d	a0,ft0,rtz
    80000610:	001015f3          	fsflags	a1,zero
    80000614:	01000613          	li	a2,16
    80000618:	34d51263          	bne	a0,a3,8000095c <fail>
    8000061c:	34c59063          	bne	a1,a2,8000095c <fail>

0000000080000620 <test_33>:
    80000620:	02100193          	li	gp,33
    80000624:	00002517          	auipc	a0,0x2
    80000628:	d3c50513          	addi	a0,a0,-708 # 80002360 <test_33_data>
    8000062c:	00053007          	fld	ft0,0(a0)
    80000630:	00853087          	fld	ft1,8(a0)
    80000634:	01053107          	fld	ft2,16(a0)
    80000638:	01853683          	ld	a3,24(a0)
    8000063c:	c2301553          	fcvt.lu.d	a0,ft0,rtz
    80000640:	001015f3          	fsflags	a1,zero
    80000644:	01000613          	li	a2,16
    80000648:	30d51a63          	bne	a0,a3,8000095c <fail>
    8000064c:	30c59863          	bne	a1,a2,8000095c <fail>

0000000080000650 <test_34>:
    80000650:	02200193          	li	gp,34
    80000654:	00002517          	auipc	a0,0x2
    80000658:	d2c50513          	addi	a0,a0,-724 # 80002380 <test_34_data>
    8000065c:	00053007          	fld	ft0,0(a0)
    80000660:	00853087          	fld	ft1,8(a0)
    80000664:	01053107          	fld	ft2,16(a0)
    80000668:	01853683          	ld	a3,24(a0)
    8000066c:	c2301553          	fcvt.lu.d	a0,ft0,rtz
    80000670:	001015f3          	fsflags	a1,zero
    80000674:	00100613          	li	a2,1
    80000678:	2ed51263          	bne	a0,a3,8000095c <fail>
    8000067c:	2ec59063          	bne	a1,a2,8000095c <fail>

0000000080000680 <test_35>:
    80000680:	02300193          	li	gp,35
    80000684:	00002517          	auipc	a0,0x2
    80000688:	d1c50513          	addi	a0,a0,-740 # 800023a0 <test_35_data>
    8000068c:	00053007          	fld	ft0,0(a0)
    80000690:	00853087          	fld	ft1,8(a0)
    80000694:	01053107          	fld	ft2,16(a0)
    80000698:	01853683          	ld	a3,24(a0)
    8000069c:	c2301553          	fcvt.lu.d	a0,ft0,rtz
    800006a0:	001015f3          	fsflags	a1,zero
    800006a4:	00100613          	li	a2,1
    800006a8:	2ad51a63          	bne	a0,a3,8000095c <fail>
    800006ac:	2ac59863          	bne	a1,a2,8000095c <fail>

00000000800006b0 <test_36>:
    800006b0:	02400193          	li	gp,36
    800006b4:	00002517          	auipc	a0,0x2
    800006b8:	d0c50513          	addi	a0,a0,-756 # 800023c0 <test_36_data>
    800006bc:	00053007          	fld	ft0,0(a0)
    800006c0:	00853087          	fld	ft1,8(a0)
    800006c4:	01053107          	fld	ft2,16(a0)
    800006c8:	01853683          	ld	a3,24(a0)
    800006cc:	c2301553          	fcvt.lu.d	a0,ft0,rtz
    800006d0:	001015f3          	fsflags	a1,zero
    800006d4:	00000613          	li	a2,0
    800006d8:	28d51263          	bne	a0,a3,8000095c <fail>
    800006dc:	28c59063          	bne	a1,a2,8000095c <fail>

00000000800006e0 <test_37>:
    800006e0:	02500193          	li	gp,37
    800006e4:	00002517          	auipc	a0,0x2
    800006e8:	cfc50513          	addi	a0,a0,-772 # 800023e0 <test_37_data>
    800006ec:	00053007          	fld	ft0,0(a0)
    800006f0:	00853087          	fld	ft1,8(a0)
    800006f4:	01053107          	fld	ft2,16(a0)
    800006f8:	01853683          	ld	a3,24(a0)
    800006fc:	c2301553          	fcvt.lu.d	a0,ft0,rtz
    80000700:	001015f3          	fsflags	a1,zero
    80000704:	00100613          	li	a2,1
    80000708:	24d51a63          	bne	a0,a3,8000095c <fail>
    8000070c:	24c59863          	bne	a1,a2,8000095c <fail>

0000000080000710 <test_38>:
    80000710:	02600193          	li	gp,38
    80000714:	00002517          	auipc	a0,0x2
    80000718:	cec50513          	addi	a0,a0,-788 # 80002400 <test_38_data>
    8000071c:	00053007          	fld	ft0,0(a0)
    80000720:	00853087          	fld	ft1,8(a0)
    80000724:	01053107          	fld	ft2,16(a0)
    80000728:	01853683          	ld	a3,24(a0)
    8000072c:	c2301553          	fcvt.lu.d	a0,ft0,rtz
    80000730:	001015f3          	fsflags	a1,zero
    80000734:	01000613          	li	a2,16
    80000738:	22d51263          	bne	a0,a3,8000095c <fail>
    8000073c:	22c59063          	bne	a1,a2,8000095c <fail>

0000000080000740 <test_39>:
    80000740:	02700193          	li	gp,39
    80000744:	00002517          	auipc	a0,0x2
    80000748:	cdc50513          	addi	a0,a0,-804 # 80002420 <test_39_data>
    8000074c:	00053007          	fld	ft0,0(a0)
    80000750:	00853087          	fld	ft1,8(a0)
    80000754:	01053107          	fld	ft2,16(a0)
    80000758:	01853683          	ld	a3,24(a0)
    8000075c:	c2301553          	fcvt.lu.d	a0,ft0,rtz
    80000760:	001015f3          	fsflags	a1,zero
    80000764:	00000613          	li	a2,0
    80000768:	1ed51a63          	bne	a0,a3,8000095c <fail>
    8000076c:	1ec59863          	bne	a1,a2,8000095c <fail>

0000000080000770 <test_42>:
    80000770:	00002097          	auipc	ra,0x2
    80000774:	ce008093          	addi	ra,ra,-800 # 80002450 <tdat_d>
    80000778:	0000b087          	fld	ft1,0(ra)
    8000077c:	c200f0d3          	fcvt.w.d	ra,ft1
    80000780:	80000eb7          	lui	t4,0x80000
    80000784:	fffe8e9b          	addiw	t4,t4,-1
    80000788:	02a00193          	li	gp,42
    8000078c:	1dd09863          	bne	ra,t4,8000095c <fail>

0000000080000790 <test_43>:
    80000790:	00002097          	auipc	ra,0x2
    80000794:	cc008093          	addi	ra,ra,-832 # 80002450 <tdat_d>
    80000798:	0000b087          	fld	ft1,0(ra)
    8000079c:	c220f0d3          	fcvt.l.d	ra,ft1
    800007a0:	fff00e9b          	addiw	t4,zero,-1
    800007a4:	03fe9e93          	slli	t4,t4,0x3f
    800007a8:	fffe8e93          	addi	t4,t4,-1 # ffffffff7fffffff <_end+0xfffffffeffffdb8f>
    800007ac:	02b00193          	li	gp,43
    800007b0:	1bd09663          	bne	ra,t4,8000095c <fail>

00000000800007b4 <test_44>:
    800007b4:	00002097          	auipc	ra,0x2
    800007b8:	c9c08093          	addi	ra,ra,-868 # 80002450 <tdat_d>
    800007bc:	0100b087          	fld	ft1,16(ra)
    800007c0:	c200f0d3          	fcvt.w.d	ra,ft1
    800007c4:	80000eb7          	lui	t4,0x80000
    800007c8:	02c00193          	li	gp,44
    800007cc:	19d09863          	bne	ra,t4,8000095c <fail>

00000000800007d0 <test_45>:
    800007d0:	00002097          	auipc	ra,0x2
    800007d4:	c8008093          	addi	ra,ra,-896 # 80002450 <tdat_d>
    800007d8:	0100b087          	fld	ft1,16(ra)
    800007dc:	c220f0d3          	fcvt.l.d	ra,ft1
    800007e0:	fff00e9b          	addiw	t4,zero,-1
    800007e4:	03fe9e93          	slli	t4,t4,0x3f
    800007e8:	02d00193          	li	gp,45
    800007ec:	17d09863          	bne	ra,t4,8000095c <fail>

00000000800007f0 <test_52>:
    800007f0:	00002097          	auipc	ra,0x2
    800007f4:	c6008093          	addi	ra,ra,-928 # 80002450 <tdat_d>
    800007f8:	0080b087          	fld	ft1,8(ra)
    800007fc:	c200f0d3          	fcvt.w.d	ra,ft1
    80000800:	80000eb7          	lui	t4,0x80000
    80000804:	fffe8e9b          	addiw	t4,t4,-1
    80000808:	03400193          	li	gp,52
    8000080c:	15d09863          	bne	ra,t4,8000095c <fail>

0000000080000810 <test_53>:
    80000810:	00002097          	auipc	ra,0x2
    80000814:	c4008093          	addi	ra,ra,-960 # 80002450 <tdat_d>
    80000818:	0080b087          	fld	ft1,8(ra)
    8000081c:	c220f0d3          	fcvt.l.d	ra,ft1
    80000820:	fff00e9b          	addiw	t4,zero,-1
    80000824:	03fe9e93          	slli	t4,t4,0x3f
    80000828:	fffe8e93          	addi	t4,t4,-1 # ffffffff7fffffff <_end+0xfffffffeffffdb8f>
    8000082c:	03500193          	li	gp,53
    80000830:	13d09663          	bne	ra,t4,8000095c <fail>

0000000080000834 <test_54>:
    80000834:	00002097          	auipc	ra,0x2
    80000838:	c1c08093          	addi	ra,ra,-996 # 80002450 <tdat_d>
    8000083c:	0180b087          	fld	ft1,24(ra)
    80000840:	c200f0d3          	fcvt.w.d	ra,ft1
    80000844:	80000eb7          	lui	t4,0x80000
    80000848:	fffe8e9b          	addiw	t4,t4,-1
    8000084c:	03600193          	li	gp,54
    80000850:	11d09663          	bne	ra,t4,8000095c <fail>

0000000080000854 <test_55>:
    80000854:	00002097          	auipc	ra,0x2
    80000858:	bfc08093          	addi	ra,ra,-1028 # 80002450 <tdat_d>
    8000085c:	0180b087          	fld	ft1,24(ra)
    80000860:	c220f0d3          	fcvt.l.d	ra,ft1
    80000864:	fff00e9b          	addiw	t4,zero,-1
    80000868:	03fe9e93          	slli	t4,t4,0x3f
    8000086c:	fffe8e93          	addi	t4,t4,-1 # ffffffff7fffffff <_end+0xfffffffeffffdb8f>
    80000870:	03700193          	li	gp,55
    80000874:	0fd09463          	bne	ra,t4,8000095c <fail>

0000000080000878 <test_62>:
    80000878:	00002097          	auipc	ra,0x2
    8000087c:	bd808093          	addi	ra,ra,-1064 # 80002450 <tdat_d>
    80000880:	0000b087          	fld	ft1,0(ra)
    80000884:	c210f0d3          	fcvt.wu.d	ra,ft1
    80000888:	fff00e93          	li	t4,-1
    8000088c:	03e00193          	li	gp,62
    80000890:	0dd09663          	bne	ra,t4,8000095c <fail>

0000000080000894 <test_63>:
    80000894:	00002097          	auipc	ra,0x2
    80000898:	bbc08093          	addi	ra,ra,-1092 # 80002450 <tdat_d>
    8000089c:	0080b087          	fld	ft1,8(ra)
    800008a0:	c210f0d3          	fcvt.wu.d	ra,ft1
    800008a4:	fff00e93          	li	t4,-1
    800008a8:	03f00193          	li	gp,63
    800008ac:	0bd09863          	bne	ra,t4,8000095c <fail>

00000000800008b0 <test_64>:
    800008b0:	00002097          	auipc	ra,0x2
    800008b4:	ba008093          	addi	ra,ra,-1120 # 80002450 <tdat_d>
    800008b8:	0100b087          	fld	ft1,16(ra)
    800008bc:	c210f0d3          	fcvt.wu.d	ra,ft1
    800008c0:	00000e93          	li	t4,0
    800008c4:	04000193          	li	gp,64
    800008c8:	09d09a63          	bne	ra,t4,8000095c <fail>

00000000800008cc <test_65>:
    800008cc:	00002097          	auipc	ra,0x2
    800008d0:	b8408093          	addi	ra,ra,-1148 # 80002450 <tdat_d>
    800008d4:	0180b087          	fld	ft1,24(ra)
    800008d8:	c210f0d3          	fcvt.wu.d	ra,ft1
    800008dc:	fff00e93          	li	t4,-1
    800008e0:	04100193          	li	gp,65
    800008e4:	07d09c63          	bne	ra,t4,8000095c <fail>

00000000800008e8 <test_66>:
    800008e8:	00002097          	auipc	ra,0x2
    800008ec:	b6808093          	addi	ra,ra,-1176 # 80002450 <tdat_d>
    800008f0:	0000b087          	fld	ft1,0(ra)
    800008f4:	c230f0d3          	fcvt.lu.d	ra,ft1
    800008f8:	fff00e93          	li	t4,-1
    800008fc:	04200193          	li	gp,66
    80000900:	05d09e63          	bne	ra,t4,8000095c <fail>

0000000080000904 <test_67>:
    80000904:	00002097          	auipc	ra,0x2
    80000908:	b4c08093          	addi	ra,ra,-1204 # 80002450 <tdat_d>
    8000090c:	0080b087          	fld	ft1,8(ra)
    80000910:	c230f0d3          	fcvt.lu.d	ra,ft1
    80000914:	fff00e93          	li	t4,-1
    80000918:	04300193          	li	gp,67
    8000091c:	05d09063          	bne	ra,t4,8000095c <fail>

0000000080000920 <test_68>:
    80000920:	00002097          	auipc	ra,0x2
    80000924:	b3008093          	addi	ra,ra,-1232 # 80002450 <tdat_d>
    80000928:	0100b087          	fld	ft1,16(ra)
    8000092c:	c230f0d3          	fcvt.lu.d	ra,ft1
    80000930:	00000e93          	li	t4,0
    80000934:	04400193          	li	gp,68
    80000938:	03d09263          	bne	ra,t4,8000095c <fail>

000000008000093c <test_69>:
    8000093c:	00002097          	auipc	ra,0x2
    80000940:	b1408093          	addi	ra,ra,-1260 # 80002450 <tdat_d>
    80000944:	0180b087          	fld	ft1,24(ra)
    80000948:	c230f0d3          	fcvt.lu.d	ra,ft1
    8000094c:	fff00e93          	li	t4,-1
    80000950:	04500193          	li	gp,69
    80000954:	01d09463          	bne	ra,t4,8000095c <fail>
    80000958:	00301c63          	bne	zero,gp,80000970 <pass>

000000008000095c <fail>:
    8000095c:	0ff0000f          	fence
    80000960:	00018063          	beqz	gp,80000960 <fail+0x4>
    80000964:	00119193          	slli	gp,gp,0x1
    80000968:	0011e193          	ori	gp,gp,1
    8000096c:	00000073          	ecall

0000000080000970 <pass>:
    80000970:	0ff0000f          	fence
    80000974:	00100193          	li	gp,1
    80000978:	00000073          	ecall
    8000097c:	c0001073          	unimp
    80000980:	0000                	unimp
    80000982:	0000                	unimp
